
emul_line.elf:     file format elf32-littleriscv
emul_line.elf
architecture: riscv:rv32, flags 0x00000112:
EXEC_P, HAS_SYMS, D_PAGED
start address 0x00000000

Program Header:
    LOAD off    0x00001000 vaddr 0x00000000 paddr 0x00000000 align 2**12
         filesz 0x000044fc memsz 0x000044fc flags r-x
    LOAD off    0x00006000 vaddr 0x20000000 paddr 0x000044fc align 2**12
         filesz 0x000000a0 memsz 0x00000e40 flags rw-
    LOAD off    0x00006800 vaddr 0x20004800 paddr 0x20004800 align 2**12
         filesz 0x00000000 memsz 0x00000800 flags rw-

Sections:
Idx Name          Size      VMA       LMA       File off  Algn
  0 .init         00000004  00000000  00000000  00001000  2**1
                  CONTENTS, ALLOC, LOAD, READONLY, CODE
  1 .vector       000000fc  00000004  00000004  00001004  2**1
                  CONTENTS, ALLOC, LOAD, READONLY, CODE
  2 .text         000043fc  00000100  00000100  00001100  2**2
                  CONTENTS, ALLOC, LOAD, READONLY, CODE
  3 .fini         00000000  000044fc  000044fc  000060a0  2**0
                  CONTENTS, ALLOC, LOAD, CODE
  4 .dalign       00000000  20000000  20000000  000060a0  2**0
                  CONTENTS
  5 .dlalign      00000000  000044fc  000044fc  000060a0  2**0
                  CONTENTS
  6 .data         000000a0  20000000  000044fc  00006000  2**2
                  CONTENTS, ALLOC, LOAD, DATA
  7 .bss          00000da0  200000a0  0000459c  000060a0  2**2
                  ALLOC
  8 .stack        00000800  20004800  20004800  00006800  2**0
                  ALLOC
  9 .debug_info   0000d330  00000000  00000000  000060a0  2**0
                  CONTENTS, READONLY, DEBUGGING
 10 .debug_abbrev 000028d4  00000000  00000000  000133d0  2**0
                  CONTENTS, READONLY, DEBUGGING
 11 .debug_aranges 00000538  00000000  00000000  00015ca8  2**3
                  CONTENTS, READONLY, DEBUGGING
 12 .debug_ranges 00000428  00000000  00000000  000161e0  2**3
                  CONTENTS, READONLY, DEBUGGING
 13 .debug_line   00006b52  00000000  00000000  00016608  2**0
                  CONTENTS, READONLY, DEBUGGING
 14 .debug_str    00001dfd  00000000  00000000  0001d15a  2**0
                  CONTENTS, READONLY, DEBUGGING
 15 .comment      00000033  00000000  00000000  0001ef57  2**0
                  CONTENTS, READONLY
 16 .debug_frame  000018fc  00000000  00000000  0001ef8c  2**2
                  CONTENTS, READONLY, DEBUGGING
 17 .stab         00000084  00000000  00000000  00020888  2**2
                  CONTENTS, READONLY, DEBUGGING
 18 .stabstr      00000117  00000000  00000000  0002090c  2**0
                  CONTENTS, READONLY, DEBUGGING
SYMBOL TABLE:
00000000 l    d  .init	00000000 .init
00000004 l    d  .vector	00000000 .vector
00000100 l    d  .text	00000000 .text
000044fc l    d  .fini	00000000 .fini
20000000 l    d  .dalign	00000000 .dalign
000044fc l    d  .dlalign	00000000 .dlalign
20000000 l    d  .data	00000000 .data
200000a0 l    d  .bss	00000000 .bss
20004800 l    d  .stack	00000000 .stack
00000000 l    d  .debug_info	00000000 .debug_info
00000000 l    d  .debug_abbrev	00000000 .debug_abbrev
00000000 l    d  .debug_aranges	00000000 .debug_aranges
00000000 l    d  .debug_ranges	00000000 .debug_ranges
00000000 l    d  .debug_line	00000000 .debug_line
00000000 l    d  .debug_str	00000000 .debug_str
00000000 l    d  .comment	00000000 .comment
00000000 l    d  .debug_frame	00000000 .debug_frame
00000000 l    d  .stab	00000000 .stab
00000000 l    d  .stabstr	00000000 .stabstr
00000000 l    df *ABS*	00000000 ./Startup/startup_ch32x035.o
00000004 l       .vector	00000000 _vector_base
00000000 l    df *ABS*	00000000 emul_line_pc_cmd.c
00000000 l    df *ABS*	00000000 calc_crc.c
00000000 l    df *ABS*	00000000 baloo_emul_line_brd.c
00000000 l    df *ABS*	00000000 ch32x035_it.c
00000000 l    df *ABS*	00000000 ch32x035_usbfs_device.c
00000000 l    df *ABS*	00000000 emul_line.c
00000000 l    df *ABS*	00000000 main.c
00000000 l    df *ABS*	00000000 system_ch32x035.c
00002078 l     F .text	00000014 SetSysClock
0000208c l     F .text	00000048 SetSysClockTo48_HSI
00000000 l    df *ABS*	00000000 ch32x035_dbgmcu.c
00000000 l    df *ABS*	00000000 ch32x035_gpio.c
00000000 l    df *ABS*	00000000 ch32x035_misc.c
00000000 l    df *ABS*	00000000 ch32x035_pwr.c
00000000 l    df *ABS*	00000000 ch32x035_rcc.c
20000010 l     O .data	00000010 APBAHBPrescTable
00000000 l    df *ABS*	00000000 ch32x035_usart.c
00000000 l    df *ABS*	00000000 debug.c
200000d0 l     O .bss	00000001 p_us
200000d2 l     O .bss	00000002 p_ms
20000090 l     O .data	00000004 curbrk.4332
00000000 l    df *ABS*	00000000 memcpy.c
00000000 l    df *ABS*	00000000 printf.c
00000000 l    df *ABS*	00000000 puts.c
00000000 l    df *ABS*	00000000 wbuf.c
00000000 l    df *ABS*	00000000 wsetup.c
00000000 l    df *ABS*	00000000 fflush.c
00000000 l    df *ABS*	00000000 findfp.c
000033de l     F .text	00000066 std
00000000 l    df *ABS*	00000000 fwalk.c
00000000 l    df *ABS*	00000000 makebuf.c
00000000 l    df *ABS*	00000000 nano-mallocr.c
00000000 l    df *ABS*	00000000 nano-mallocr.c
00000000 l    df *ABS*	00000000 nano-vfprintf.c
00003864 l     F .text	00000028 __sfputc_r
00000000 l    df *ABS*	00000000 nano-vfprintf_i.c
00000000 l    df *ABS*	00000000 sbrkr.c
00000000 l    df *ABS*	00000000 stdio.c
00000000 l    df *ABS*	00000000 writer.c
00000000 l    df *ABS*	00000000 closer.c
00000000 l    df *ABS*	00000000 fstatr.c
00000000 l    df *ABS*	00000000 isattyr.c
00000000 l    df *ABS*	00000000 lseekr.c
00000000 l    df *ABS*	00000000 memchr.c
00000000 l    df *ABS*	00000000 mlock.c
00000000 l    df *ABS*	00000000 readr.c
00000000 l    df *ABS*	00000000 close.c
00000000 l    df *ABS*	00000000 fstat.c
00000000 l    df *ABS*	00000000 isatty.c
00000000 l    df *ABS*	00000000 lseek.c
00000000 l    df *ABS*	00000000 read.c
00000000 l    df *ABS*	00000000 usb_desc.c
00000000 l    df *ABS*	00000000 impure.c
20000020 l     O .data	00000060 impure_data
00000000 l    df *ABS*	00000000 reent.c
00004054 g     F .text	00000028 _isatty_r
00004448 g     O .text	00000016 MySerNumInfo
200000a6 g     O .bss	00000002 USBFS_SetupReqValue
00002fb4 g     F .text	000000d4 _puts_r
0000407c g     F .text	0000002c _lseek_r
00002f74 g     F .text	00000040 printf
20000880 g       .data	00000000 __global_pointer$
000020d4  w      .text	00000000 TIM1_CC_IRQHandler
000020d4  w      .text	00000000 TIM2_UP_IRQHandler
00003f9e g     F .text	00000030 __sseek
00003494 g     F .text	00000066 __sinit
00003092 g     F .text	000000bc __swbuf_r
00000c66 g     F .text	00000008 HardFault_Handler
00001e32 g     F .text	00000016 check_usb_data_rdy
0000344e g     F .text	00000046 __sfmoreglue
200000c1 g     O .bss	00000001 ok_tst
20000084 g     O .data	00000004 CFGHR_tmpA
000040c2 g     F .text	00000002 __malloc_unlock
000020d4  w      .text	00000000 USBPD_IRQHandler
2000059c g     O .bss	00000800 USB_Tx_Buf
000020d4  w      .text	00000000 SysTick_Handler
000020d4  w      .text	00000000 PVD_IRQHandler
200000c0 g     O .bss	00000001 tst
00000c5e g     F .text	00000008 NMI_Handler
0000215c g     F .text	00000018 DBGMCU_GetCHIPID
00000c6e g     F .text	00000022 USBFS_RCC_Init
000027f8 g     F .text	00000040 PWR_VDD_SupplyVoltage
00002be6 g     F .text	00000044 USART_GetFlagStatus
0000402a g     F .text	0000002a _fstat_r
20000e3c g     O .bss	00000004 errno
200000a0 g       .bss	00000000 _sbss
00000800 g       *ABS*	00000000 __stack_size
200000aa g     O .bss	00000002 USBFS_SetupReqLen
00002d78 g     F .text	0000007a USART_Printf_Init
000020d4  w      .text	00000000 EXTI25_16_IRQHandler
00001198 g     F .text	00000bca USBFS_IRQHandler
000043c8 g     O .text	00000012 MyDevDescr
00002ec2 g     F .text	000000b2 memcpy
00000844 g     F .text	00000042 put_out2
00000a6a g     F .text	00000084 put_out_n
00003444 g     F .text	0000000a _cleanup_r
0000258a g     F .text	000001dc GPIO_PinRemapConfig
00003088 g     F .text	0000000a puts
00000aee g     F .text	000000b8 set_out_n
20000080 g     O .data	00000004 SystemCoreClock
2000011c g     O .bss	00000040 USBFS_EP1_Buf
00000912 g     F .text	00000042 put_out5
000008d0 g     F .text	00000042 put_out4
000040fc g     F .text	0000000c _fstat
00000004 g       .init	00000000 _einit
20000dfc g     O .bss	00000040 usb_tx_b
00002924 g     F .text	00000046 RCC_APB2PeriphClockCmd
00002174 g     F .text	00000394 GPIO_Init
000020d4  w      .text	00000000 Break_Point_Handler
000020d4  w      .text	00000000 TIM2_TRG_COM_IRQHandler
000020d4  w      .text	00000000 TIM2_CC_IRQHandler
200000cc g     O .bss	00000004 NVIC_Priority_Group
000020d4  w      .text	00000000 SPI1_IRQHandler
00002b62 g     F .text	00000058 USART_Cmd
00003f00 g     F .text	0000002a _sbrk_r
20000098 g     O .data	00000004 MyLangDescr
000020d4  w      .text	00000000 AWU_IRQHandler
000020d4  w      .text	00000000 EXTI7_0_IRQHandler
000040c4 g     F .text	0000002c _read_r
0000296a g     F .text	00000046 RCC_APB1PeriphClockCmd
000020d4  w      .text	00000000 Ecall_M_Mode_Handler
000043dc g     O .text	00000043 MyCfgDescr
20004800 g       .stack	00000000 _heap_end
00004108 g     F .text	0000000c _isatty
00002c70 g     F .text	00000084 Delay_Us
2000009c g     O .data	00000004 _global_impure_ptr
000028de g     F .text	00000046 RCC_AHBPeriphClockCmd
000020d4  w      .text	00000000 DMA1_Channel4_IRQHandler
000020d4  w      .text	00000000 ADC1_IRQHandler
00002e68 g     F .text	0000005a _sbrk
000020d4  w      .text	00000000 TIM2_BRK_IRQHandler
200000c8 g     O .bss	00000001 USB_Down_StopFlag
00004420 g     O .text	0000000e MyManuInfo
200000c2 g     O .bss	00000002 USB_Rx_LoadNum
000020d4  w      .text	00000000 USART3_IRQHandler
200000ac g     O .bss	00000001 USBFS_DevConfig
20000e40 g       .bss	00000000 _ebss
000020d4  w      .text	00000000 DMA1_Channel7_IRQHandler
00000996 g     F .text	000000d4 get_inp
0000034a g     F .text	00000070 rd_cmd
00002c2a g     F .text	00000046 Delay_Init
00000ba6 g     F .text	000000b8 clr_out_n
000020d4  w      .text	00000000 USBPDWakeUp_IRQHandler
000020d4  w      .text	00000000 EXTI15_8_IRQHandler
200000a8 g     O .bss	00000002 USBFS_SetupReqIndex
00002540 g     F .text	0000004a GPIO_WriteBit
200000a5 g     O .bss	00000001 USBFS_SetupReqType
00004460 g     O .text	00000020 __sf_fake_stderr
200000c4 g     O .bss	00000002 USB_Rx_DealNum
000020d4  w      .text	00000000 I2C1_EV_IRQHandler
000020d4  w      .text	00000000 USART4_IRQHandler
200000b0 g     O .bss	00000008 USBFS_Endp_Busy
200000c9 g     O .bss	00000001 usb_rx_len
00002838 g     F .text	000000a6 RCC_GetClocksFreq
000020d4  w      .text	00000000 DMA1_Channel6_IRQHandler
0000388c g     F .text	00000040 __sfputs_r
000040a8 g     F .text	00000018 memchr
000029b0 g     F .text	000001b2 USART_Init
000036e8 g     F .text	000000a8 _free_r
000020d4  w      .text	00000000 TIM3_IRQHandler
2000019c g     O .bss	00000400 USB_Rx_Buf
000020d4  w      .text	00000000 TIM1_TRG_COM_IRQHandler
2000008c g     O .data	00000004 CFGHR_tmpC
000020d4  w      .text	00000000 DMA1_Channel1_IRQHandler
00000000 g       .init	00000000 _start
20000000 g     O .data	00000010 AHBPrescTable
00004114 g     F .text	0000000c _lseek
00000ee4 g     F .text	000002b4 USBFS_Endp_DataUp
000007d0 g     F .text	0000003a put_out0
200000a4 g     O .bss	00000001 USBFS_SetupReqCode
200000c6 g     O .bss	00000002 USB_Rx_RemainNum
000020d4  w      .text	00000000 DMA1_Channel8_IRQHandler
00000886 g     F .text	0000004a put_out3
200000af g     O .bss	00000001 USBFS_DevEnumStatus
00004002 g     F .text	00000028 _close_r
20000000 g       .dalign	00000000 _data_vma
0000314e g     F .text	000000fc __swsetup_r
000020d4  w      .text	00000000 PIOC_IRQHandler
000034fa g     F .text	0000009c __sfp
200000ad g     O .bss	00000001 USBFS_DevAddr
000007bc g     F .text	00000014 board_init
00003f2a g     F .text	0000002c __sread
000040c0 g     F .text	00000002 __malloc_lock
0000337a g     F .text	00000064 _fflush_r
00004480 g     O .text	00000020 __sf_fake_stdin
000003ba g     F .text	00000186 parse_cmd
00000100 g     F .text	000000a8 memset
00001e8c g     F .text	00000122 main
00001e48 g     F .text	00000044 init_cdc_usb
00003fce g     F .text	00000006 __sclose
00003790 g     F .text	000000d4 _malloc_r
200000ae g     O .bss	00000001 USBFS_DevSleepStatus
000020d4  w      .text	00000000 DMA1_Channel5_IRQHandler
00002cf4 g     F .text	00000084 Delay_Ms
00000dc4 g     F .text	00000120 USBFS_Device_Init
00004430 g     O .text	00000016 MyProdInfo
20000088 g     O .data	00000004 CFGHR_tmpB
00000c90 g     F .text	000000d6 USBFS_Device_Endp_Init
00001fae g     F .text	0000004a SystemInit
00002f74 g     F .text	00000040 iprintf
00001d62 g     F .text	00000036 RCC_Configuration
00000000 g       .init	00000000 _sinit
00003fd4 g     F .text	0000002e _write_r
000020d4  w      .text	00000000 DMA1_Channel3_IRQHandler
00003b52 g     F .text	0000010c _printf_common
20000094 g     O .data	00000004 _impure_ptr
000020d4  w      .text	00000000 TIM1_UP_IRQHandler
0000324a g     F .text	00000130 __sflush_r
00000540 g     F .text	00000080 Calc_CRC16
20000d9c g     O .bss	00000020 USB_Rx_PackLen
000020d4  w      .text	00000000 WWDG_IRQHandler
000020d4  w      .text	00000000 Ecall_U_Mode_Handler
20000dbc g     O .bss	00000040 usb_rx_b
20005000 g       .stack	00000000 _eusrstack
0000023e g     F .text	0000010c wr_cmd
000020d4  w      .text	00000000 SW_Handler
000020d4  w      .text	00000000 TIM1_BRK_IRQHandler
00003600 g     F .text	00000058 __swhatbuf_r
00002bba g     F .text	0000002c USART_SendData
000020d4  w      .text	00000000 OPA_IRQHandler
0000080a g     F .text	0000003a put_out1
00002df2 g     F .text	00000076 _write
200000dc g     O .bss	00000040 USBFS_EP0_4Buf
00004198 g     O .text	00000200 CRC16_Table
200000a0 g       .data	00000000 _edata
200000a0 g     O .bss	00000004 pUSBFS_Descr
20000e40 g       .bss	00000000 _end
000027c4 g     F .text	00000034 PWR_GetFlagStatus
000044fc g       .dlalign	00000000 _data_lma
000020d4  w      .text	00000000 USART2_IRQHandler
00003f56 g     F .text	00000048 __swrite
00002780 g     F .text	00000044 PWR_PVDLevelConfig
000038cc g     F .text	00000286 _vfiprintf_r
00003596 g     F .text	0000006a _fwalk_reent
00001ff8 g     F .text	00000080 SystemCoreClockUpdate
000020d4  w      .text	00000000 DMA1_Channel2_IRQHandler
000044a0 g     O .text	00000020 __sf_fake_stdout
00004120 g     F .text	0000000c _read
000020d6  w      .text	00000000 handle_reset
00000954 g     F .text	00000042 put_out6
000020d4  w      .text	00000000 FLASH_IRQHandler
000020d4  w      .text	00000000 USBFSWakeUp_IRQHandler
000020d4  w      .text	00000000 USART1_IRQHandler
00003658 g     F .text	00000090 __smakebuf_r
00003c5e g     F .text	000002a2 _printf_i
200000d8 g     O .bss	00000004 __malloc_sbrk_start
000020d4  w      .text	00000000 I2C1_ER_IRQHandler
2000015c g     O .bss	00000040 USBFS_EP3_Buf
00002766 g     F .text	0000001a NVIC_PriorityGroupConfig
000001a8 g     F .text	00000096 check_cmd
000005c0 g     F .text	000001fc gpio_init
200000b8 g     O .bss	00000008 Com_Cfg
200000d4 g     O .bss	00000004 __malloc_free_list
000038cc g     F .text	00000286 _vfprintf_r
00000d66 g     F .text	0000005e GPIO_USB_INIT
00002508 g     F .text	00000038 GPIO_ReadInputDataBit
00001d98 g     F .text	0000009a send_to_usb
000040f0 g     F .text	0000000c _close



Disassembly of section .init:

00000000 <_sinit>:
   0:	0d60206f          	j	20d6 <handle_reset>

Disassembly of section .vector:

00000004 <_vector_base>:
	...
   c:	0c5e                	slli	s8,s8,0x17
   e:	0000                	unimp
  10:	0c66                	slli	s8,s8,0x19
  12:	0000                	unimp
  14:	0000                	unimp
  16:	0000                	unimp
  18:	20d4                	lbu	a3,4(s1)
	...
  22:	0000                	unimp
  24:	20d4                	lbu	a3,4(s1)
  26:	0000                	unimp
  28:	20d4                	lbu	a3,4(s1)
	...
  32:	0000                	unimp
  34:	20d4                	lbu	a3,4(s1)
  36:	0000                	unimp
  38:	0000                	unimp
  3a:	0000                	unimp
  3c:	20d4                	lbu	a3,4(s1)
  3e:	0000                	unimp
  40:	0000                	unimp
  42:	0000                	unimp
  44:	20d4                	lbu	a3,4(s1)
  46:	0000                	unimp
  48:	20d4                	lbu	a3,4(s1)
  4a:	0000                	unimp
  4c:	20d4                	lbu	a3,4(s1)
  4e:	0000                	unimp
  50:	0000                	unimp
  52:	0000                	unimp
  54:	20d4                	lbu	a3,4(s1)
  56:	0000                	unimp
  58:	20d4                	lbu	a3,4(s1)
  5a:	0000                	unimp
  5c:	20d4                	lbu	a3,4(s1)
  5e:	0000                	unimp
  60:	20d4                	lbu	a3,4(s1)
  62:	0000                	unimp
  64:	20d4                	lbu	a3,4(s1)
  66:	0000                	unimp
  68:	20d4                	lbu	a3,4(s1)
  6a:	0000                	unimp
  6c:	20d4                	lbu	a3,4(s1)
  6e:	0000                	unimp
  70:	20d4                	lbu	a3,4(s1)
  72:	0000                	unimp
  74:	20d4                	lbu	a3,4(s1)
  76:	0000                	unimp
  78:	20d4                	lbu	a3,4(s1)
  7a:	0000                	unimp
  7c:	20d4                	lbu	a3,4(s1)
  7e:	0000                	unimp
  80:	20d4                	lbu	a3,4(s1)
  82:	0000                	unimp
  84:	20d4                	lbu	a3,4(s1)
  86:	0000                	unimp
  88:	20d4                	lbu	a3,4(s1)
  8a:	0000                	unimp
  8c:	20d4                	lbu	a3,4(s1)
  8e:	0000                	unimp
  90:	20d4                	lbu	a3,4(s1)
  92:	0000                	unimp
  94:	20d4                	lbu	a3,4(s1)
  96:	0000                	unimp
  98:	20d4                	lbu	a3,4(s1)
  9a:	0000                	unimp
  9c:	20d4                	lbu	a3,4(s1)
  9e:	0000                	unimp
  a0:	20d4                	lbu	a3,4(s1)
  a2:	0000                	unimp
  a4:	20d4                	lbu	a3,4(s1)
  a6:	0000                	unimp
  a8:	20d4                	lbu	a3,4(s1)
  aa:	0000                	unimp
  ac:	20d4                	lbu	a3,4(s1)
  ae:	0000                	unimp
  b0:	20d4                	lbu	a3,4(s1)
  b2:	0000                	unimp
  b4:	20d4                	lbu	a3,4(s1)
  b6:	0000                	unimp
  b8:	1198                	addi	a4,sp,224
  ba:	0000                	unimp
  bc:	20d4                	lbu	a3,4(s1)
  be:	0000                	unimp
  c0:	20d4                	lbu	a3,4(s1)
  c2:	0000                	unimp
  c4:	20d4                	lbu	a3,4(s1)
  c6:	0000                	unimp
  c8:	20d4                	lbu	a3,4(s1)
  ca:	0000                	unimp
  cc:	20d4                	lbu	a3,4(s1)
  ce:	0000                	unimp
  d0:	20d4                	lbu	a3,4(s1)
  d2:	0000                	unimp
  d4:	20d4                	lbu	a3,4(s1)
  d6:	0000                	unimp
  d8:	20d4                	lbu	a3,4(s1)
  da:	0000                	unimp
  dc:	20d4                	lbu	a3,4(s1)
	...

Disassembly of section .text:

00000100 <memset>:
     100:	433d                	li	t1,15
     102:	872a                	mv	a4,a0
     104:	02c37363          	bgeu	t1,a2,12a <memset+0x2a>
     108:	00f77793          	andi	a5,a4,15
     10c:	efbd                	bnez	a5,18a <memset+0x8a>
     10e:	e5ad                	bnez	a1,178 <memset+0x78>
     110:	ff067693          	andi	a3,a2,-16
     114:	8a3d                	andi	a2,a2,15
     116:	96ba                	add	a3,a3,a4
     118:	c30c                	sw	a1,0(a4)
     11a:	c34c                	sw	a1,4(a4)
     11c:	c70c                	sw	a1,8(a4)
     11e:	c74c                	sw	a1,12(a4)
     120:	0741                	addi	a4,a4,16
     122:	fed76be3          	bltu	a4,a3,118 <memset+0x18>
     126:	e211                	bnez	a2,12a <memset+0x2a>
     128:	8082                	ret
     12a:	40c306b3          	sub	a3,t1,a2
     12e:	068a                	slli	a3,a3,0x2
     130:	00000297          	auipc	t0,0x0
     134:	9696                	add	a3,a3,t0
     136:	00a68067          	jr	10(a3)
     13a:	00b70723          	sb	a1,14(a4)
     13e:	00b706a3          	sb	a1,13(a4)
     142:	00b70623          	sb	a1,12(a4)
     146:	00b705a3          	sb	a1,11(a4)
     14a:	00b70523          	sb	a1,10(a4)
     14e:	00b704a3          	sb	a1,9(a4)
     152:	00b70423          	sb	a1,8(a4)
     156:	00b703a3          	sb	a1,7(a4)
     15a:	00b70323          	sb	a1,6(a4)
     15e:	00b702a3          	sb	a1,5(a4)
     162:	00b70223          	sb	a1,4(a4)
     166:	00b701a3          	sb	a1,3(a4)
     16a:	00b70123          	sb	a1,2(a4)
     16e:	00b700a3          	sb	a1,1(a4)
     172:	00b70023          	sb	a1,0(a4)
     176:	8082                	ret
     178:	0ff5f593          	andi	a1,a1,255
     17c:	00859693          	slli	a3,a1,0x8
     180:	8dd5                	or	a1,a1,a3
     182:	01059693          	slli	a3,a1,0x10
     186:	8dd5                	or	a1,a1,a3
     188:	b761                	j	110 <memset+0x10>
     18a:	00279693          	slli	a3,a5,0x2
     18e:	00000297          	auipc	t0,0x0
     192:	9696                	add	a3,a3,t0
     194:	8286                	mv	t0,ra
     196:	fa8680e7          	jalr	-88(a3)
     19a:	8096                	mv	ra,t0
     19c:	17c1                	addi	a5,a5,-16
     19e:	8f1d                	sub	a4,a4,a5
     1a0:	963e                	add	a2,a2,a5
     1a2:	f8c374e3          	bgeu	t1,a2,12a <memset+0x2a>
     1a6:	b7a5                	j	10e <memset+0xe>

000001a8 <check_cmd>:
     1a8:	7179                	addi	sp,sp,-48
     1aa:	d606                	sw	ra,44(sp)
     1ac:	d422                	sw	s0,40(sp)
     1ae:	1800                	addi	s0,sp,48
     1b0:	fca42e23          	sw	a0,-36(s0)
     1b4:	87ae                	mv	a5,a1
     1b6:	fcf40da3          	sb	a5,-37(s0)
     1ba:	fe0407a3          	sb	zero,-17(s0)
     1be:	fdc42783          	lw	a5,-36(s0)
     1c2:	c791                	beqz	a5,1ce <check_cmd+0x26>
     1c4:	fdb44703          	lbu	a4,-37(s0)
     1c8:	478d                	li	a5,3
     1ca:	00e7e463          	bltu	a5,a4,1d2 <check_cmd+0x2a>
     1ce:	4781                	li	a5,0
     1d0:	a095                	j	234 <check_cmd+0x8c>
     1d2:	fdb44783          	lbu	a5,-37(s0)
     1d6:	17f9                	addi	a5,a5,-2
     1d8:	0ff7f793          	andi	a5,a5,255
     1dc:	85be                	mv	a1,a5
     1de:	fdc42503          	lw	a0,-36(s0)
     1e2:	2eb9                	jal	540 <Calc_CRC16>
     1e4:	87aa                	mv	a5,a0
     1e6:	fef41623          	sh	a5,-20(s0)
     1ea:	fdb44783          	lbu	a5,-37(s0)
     1ee:	17f9                	addi	a5,a5,-2
     1f0:	fdc42703          	lw	a4,-36(s0)
     1f4:	97ba                	add	a5,a5,a4
     1f6:	2398                	lbu	a4,0(a5)
     1f8:	fec45783          	lhu	a5,-20(s0)
     1fc:	0ff7f793          	andi	a5,a5,255
     200:	02f71663          	bne	a4,a5,22c <check_cmd+0x84>
     204:	fdb44783          	lbu	a5,-37(s0)
     208:	17fd                	addi	a5,a5,-1
     20a:	fdc42703          	lw	a4,-36(s0)
     20e:	97ba                	add	a5,a5,a4
     210:	2398                	lbu	a4,0(a5)
     212:	fec45783          	lhu	a5,-20(s0)
     216:	83a1                	srli	a5,a5,0x8
     218:	07c2                	slli	a5,a5,0x10
     21a:	83c1                	srli	a5,a5,0x10
     21c:	0ff7f793          	andi	a5,a5,255
     220:	00f71663          	bne	a4,a5,22c <check_cmd+0x84>
     224:	4785                	li	a5,1
     226:	fef407a3          	sb	a5,-17(s0)
     22a:	a019                	j	230 <check_cmd+0x88>
     22c:	fe0407a3          	sb	zero,-17(s0)
     230:	fef44783          	lbu	a5,-17(s0)
     234:	853e                	mv	a0,a5
     236:	50b2                	lw	ra,44(sp)
     238:	5422                	lw	s0,40(sp)
     23a:	6145                	addi	sp,sp,48
     23c:	8082                	ret

0000023e <wr_cmd>:
     23e:	7179                	addi	sp,sp,-48
     240:	d606                	sw	ra,44(sp)
     242:	d422                	sw	s0,40(sp)
     244:	1800                	addi	s0,sp,48
     246:	fca42e23          	sw	a0,-36(s0)
     24a:	87ae                	mv	a5,a1
     24c:	fcc42a23          	sw	a2,-44(s0)
     250:	fcf40da3          	sb	a5,-37(s0)
     254:	fe0407a3          	sb	zero,-17(s0)
     258:	fdc42783          	lw	a5,-36(s0)
     25c:	239c                	lbu	a5,0(a5)
     25e:	4709                	li	a4,2
     260:	04e78a63          	beq	a5,a4,2b4 <wr_cmd+0x76>
     264:	470d                	li	a4,3
     266:	08e78963          	beq	a5,a4,2f8 <wr_cmd+0xba>
     26a:	4705                	li	a4,1
     26c:	0ce79863          	bne	a5,a4,33c <wr_cmd+0xfe>
     270:	fdc42783          	lw	a5,-36(s0)
     274:	078d                	addi	a5,a5,3
     276:	239c                	lbu	a5,0(a5)
     278:	853e                	mv	a0,a5
     27a:	7f0000ef          	jal	ra,a6a <put_out_n>
     27e:	fdc42783          	lw	a5,-36(s0)
     282:	2398                	lbu	a4,0(a5)
     284:	fd442783          	lw	a5,-44(s0)
     288:	a398                	sb	a4,0(a5)
     28a:	fd442783          	lw	a5,-44(s0)
     28e:	0785                	addi	a5,a5,1
     290:	4705                	li	a4,1
     292:	a398                	sb	a4,0(a5)
     294:	fd442783          	lw	a5,-44(s0)
     298:	0789                	addi	a5,a5,2
     29a:	00078023          	sb	zero,0(a5)
     29e:	fd442783          	lw	a5,-44(s0)
     2a2:	078d                	addi	a5,a5,3
     2a4:	fdc42703          	lw	a4,-36(s0)
     2a8:	3338                	lbu	a4,3(a4)
     2aa:	a398                	sb	a4,0(a5)
     2ac:	4791                	li	a5,4
     2ae:	fef407a3          	sb	a5,-17(s0)
     2b2:	a069                	j	33c <wr_cmd+0xfe>
     2b4:	fdc42783          	lw	a5,-36(s0)
     2b8:	078d                	addi	a5,a5,3
     2ba:	239c                	lbu	a5,0(a5)
     2bc:	853e                	mv	a0,a5
     2be:	031000ef          	jal	ra,aee <set_out_n>
     2c2:	fdc42783          	lw	a5,-36(s0)
     2c6:	2398                	lbu	a4,0(a5)
     2c8:	fd442783          	lw	a5,-44(s0)
     2cc:	a398                	sb	a4,0(a5)
     2ce:	fd442783          	lw	a5,-44(s0)
     2d2:	0785                	addi	a5,a5,1
     2d4:	4705                	li	a4,1
     2d6:	a398                	sb	a4,0(a5)
     2d8:	fd442783          	lw	a5,-44(s0)
     2dc:	0789                	addi	a5,a5,2
     2de:	00078023          	sb	zero,0(a5)
     2e2:	fd442783          	lw	a5,-44(s0)
     2e6:	078d                	addi	a5,a5,3
     2e8:	fdc42703          	lw	a4,-36(s0)
     2ec:	3338                	lbu	a4,3(a4)
     2ee:	a398                	sb	a4,0(a5)
     2f0:	4791                	li	a5,4
     2f2:	fef407a3          	sb	a5,-17(s0)
     2f6:	a099                	j	33c <wr_cmd+0xfe>
     2f8:	fdc42783          	lw	a5,-36(s0)
     2fc:	078d                	addi	a5,a5,3
     2fe:	239c                	lbu	a5,0(a5)
     300:	853e                	mv	a0,a5
     302:	0a5000ef          	jal	ra,ba6 <clr_out_n>
     306:	fdc42783          	lw	a5,-36(s0)
     30a:	2398                	lbu	a4,0(a5)
     30c:	fd442783          	lw	a5,-44(s0)
     310:	a398                	sb	a4,0(a5)
     312:	fd442783          	lw	a5,-44(s0)
     316:	0785                	addi	a5,a5,1
     318:	4705                	li	a4,1
     31a:	a398                	sb	a4,0(a5)
     31c:	fd442783          	lw	a5,-44(s0)
     320:	0789                	addi	a5,a5,2
     322:	00078023          	sb	zero,0(a5)
     326:	fd442783          	lw	a5,-44(s0)
     32a:	078d                	addi	a5,a5,3
     32c:	fdc42703          	lw	a4,-36(s0)
     330:	3338                	lbu	a4,3(a4)
     332:	a398                	sb	a4,0(a5)
     334:	4791                	li	a5,4
     336:	fef407a3          	sb	a5,-17(s0)
     33a:	0001                	nop
     33c:	fef44783          	lbu	a5,-17(s0)
     340:	853e                	mv	a0,a5
     342:	50b2                	lw	ra,44(sp)
     344:	5422                	lw	s0,40(sp)
     346:	6145                	addi	sp,sp,48
     348:	8082                	ret

0000034a <rd_cmd>:
     34a:	7179                	addi	sp,sp,-48
     34c:	d606                	sw	ra,44(sp)
     34e:	d422                	sw	s0,40(sp)
     350:	d226                	sw	s1,36(sp)
     352:	1800                	addi	s0,sp,48
     354:	fca42e23          	sw	a0,-36(s0)
     358:	87ae                	mv	a5,a1
     35a:	fcc42a23          	sw	a2,-44(s0)
     35e:	fcf40da3          	sb	a5,-37(s0)
     362:	fe0407a3          	sb	zero,-17(s0)
     366:	fdc42783          	lw	a5,-36(s0)
     36a:	239c                	lbu	a5,0(a5)
     36c:	873e                	mv	a4,a5
     36e:	4791                	li	a5,4
     370:	02f71d63          	bne	a4,a5,3aa <rd_cmd+0x60>
     374:	fdc42783          	lw	a5,-36(s0)
     378:	2398                	lbu	a4,0(a5)
     37a:	fd442783          	lw	a5,-44(s0)
     37e:	a398                	sb	a4,0(a5)
     380:	fd442783          	lw	a5,-44(s0)
     384:	0785                	addi	a5,a5,1
     386:	4705                	li	a4,1
     388:	a398                	sb	a4,0(a5)
     38a:	fd442783          	lw	a5,-44(s0)
     38e:	0789                	addi	a5,a5,2
     390:	00078023          	sb	zero,0(a5)
     394:	fd442783          	lw	a5,-44(s0)
     398:	00378493          	addi	s1,a5,3
     39c:	2bed                	jal	996 <get_inp>
     39e:	87aa                	mv	a5,a0
     3a0:	a09c                	sb	a5,0(s1)
     3a2:	4791                	li	a5,4
     3a4:	fef407a3          	sb	a5,-17(s0)
     3a8:	0001                	nop
     3aa:	fef44783          	lbu	a5,-17(s0)
     3ae:	853e                	mv	a0,a5
     3b0:	50b2                	lw	ra,44(sp)
     3b2:	5422                	lw	s0,40(sp)
     3b4:	5492                	lw	s1,36(sp)
     3b6:	6145                	addi	sp,sp,48
     3b8:	8082                	ret

000003ba <parse_cmd>:
     3ba:	7179                	addi	sp,sp,-48
     3bc:	d606                	sw	ra,44(sp)
     3be:	d422                	sw	s0,40(sp)
     3c0:	1800                	addi	s0,sp,48
     3c2:	fca42e23          	sw	a0,-36(s0)
     3c6:	87ae                	mv	a5,a1
     3c8:	fcc42a23          	sw	a2,-44(s0)
     3cc:	fcf40da3          	sb	a5,-37(s0)
     3d0:	fe0407a3          	sb	zero,-17(s0)
     3d4:	fdc42783          	lw	a5,-36(s0)
     3d8:	c781                	beqz	a5,3e0 <parse_cmd+0x26>
     3da:	fd442783          	lw	a5,-44(s0)
     3de:	e399                	bnez	a5,3e4 <parse_cmd+0x2a>
     3e0:	4781                	li	a5,0
     3e2:	aa91                	j	536 <parse_cmd+0x17c>
     3e4:	fdb44783          	lbu	a5,-37(s0)
     3e8:	85be                	mv	a1,a5
     3ea:	fdc42503          	lw	a0,-36(s0)
     3ee:	3b6d                	jal	1a8 <check_cmd>
     3f0:	87aa                	mv	a5,a0
     3f2:	e399                	bnez	a5,3f8 <parse_cmd+0x3e>
     3f4:	4781                	li	a5,0
     3f6:	a281                	j	536 <parse_cmd+0x17c>
     3f8:	fdc42783          	lw	a5,-36(s0)
     3fc:	239c                	lbu	a5,0(a5)
     3fe:	4709                	li	a4,2
     400:	0ae78063          	beq	a5,a4,4a0 <parse_cmd+0xe6>
     404:	470d                	li	a4,3
     406:	12e78563          	beq	a5,a4,530 <parse_cmd+0x176>
     40a:	4705                	li	a4,1
     40c:	12e79363          	bne	a5,a4,532 <parse_cmd+0x178>
     410:	fdc42783          	lw	a5,-36(s0)
     414:	2398                	lbu	a4,0(a5)
     416:	fd442783          	lw	a5,-44(s0)
     41a:	a398                	sb	a4,0(a5)
     41c:	fdc42783          	lw	a5,-36(s0)
     420:	00178713          	addi	a4,a5,1
     424:	fd442783          	lw	a5,-44(s0)
     428:	00178693          	addi	a3,a5,1
     42c:	fdb44783          	lbu	a5,-37(s0)
     430:	8636                	mv	a2,a3
     432:	85be                	mv	a1,a5
     434:	853a                	mv	a0,a4
     436:	3521                	jal	23e <wr_cmd>
     438:	87aa                	mv	a5,a0
     43a:	fef407a3          	sb	a5,-17(s0)
     43e:	fef44783          	lbu	a5,-17(s0)
     442:	0785                	addi	a5,a5,1
     444:	fef407a3          	sb	a5,-17(s0)
     448:	fef44783          	lbu	a5,-17(s0)
     44c:	85be                	mv	a1,a5
     44e:	fd442503          	lw	a0,-44(s0)
     452:	20fd                	jal	540 <Calc_CRC16>
     454:	87aa                	mv	a5,a0
     456:	fef41623          	sh	a5,-20(s0)
     45a:	fef44783          	lbu	a5,-17(s0)
     45e:	00178713          	addi	a4,a5,1
     462:	fee407a3          	sb	a4,-17(s0)
     466:	873e                	mv	a4,a5
     468:	fd442783          	lw	a5,-44(s0)
     46c:	97ba                	add	a5,a5,a4
     46e:	fec45703          	lhu	a4,-20(s0)
     472:	0ff77713          	andi	a4,a4,255
     476:	a398                	sb	a4,0(a5)
     478:	fec45783          	lhu	a5,-20(s0)
     47c:	83a1                	srli	a5,a5,0x8
     47e:	01079693          	slli	a3,a5,0x10
     482:	82c1                	srli	a3,a3,0x10
     484:	fef44783          	lbu	a5,-17(s0)
     488:	00178713          	addi	a4,a5,1
     48c:	fee407a3          	sb	a4,-17(s0)
     490:	873e                	mv	a4,a5
     492:	fd442783          	lw	a5,-44(s0)
     496:	97ba                	add	a5,a5,a4
     498:	0ff6f713          	andi	a4,a3,255
     49c:	a398                	sb	a4,0(a5)
     49e:	a851                	j	532 <parse_cmd+0x178>
     4a0:	fdc42783          	lw	a5,-36(s0)
     4a4:	2398                	lbu	a4,0(a5)
     4a6:	fd442783          	lw	a5,-44(s0)
     4aa:	a398                	sb	a4,0(a5)
     4ac:	fdc42783          	lw	a5,-36(s0)
     4b0:	00178713          	addi	a4,a5,1
     4b4:	fd442783          	lw	a5,-44(s0)
     4b8:	00178693          	addi	a3,a5,1
     4bc:	fdb44783          	lbu	a5,-37(s0)
     4c0:	8636                	mv	a2,a3
     4c2:	85be                	mv	a1,a5
     4c4:	853a                	mv	a0,a4
     4c6:	3551                	jal	34a <rd_cmd>
     4c8:	87aa                	mv	a5,a0
     4ca:	fef407a3          	sb	a5,-17(s0)
     4ce:	fef44783          	lbu	a5,-17(s0)
     4d2:	0785                	addi	a5,a5,1
     4d4:	fef407a3          	sb	a5,-17(s0)
     4d8:	fef44783          	lbu	a5,-17(s0)
     4dc:	85be                	mv	a1,a5
     4de:	fd442503          	lw	a0,-44(s0)
     4e2:	28b9                	jal	540 <Calc_CRC16>
     4e4:	87aa                	mv	a5,a0
     4e6:	fef41623          	sh	a5,-20(s0)
     4ea:	fef44783          	lbu	a5,-17(s0)
     4ee:	00178713          	addi	a4,a5,1
     4f2:	fee407a3          	sb	a4,-17(s0)
     4f6:	873e                	mv	a4,a5
     4f8:	fd442783          	lw	a5,-44(s0)
     4fc:	97ba                	add	a5,a5,a4
     4fe:	fec45703          	lhu	a4,-20(s0)
     502:	0ff77713          	andi	a4,a4,255
     506:	a398                	sb	a4,0(a5)
     508:	fec45783          	lhu	a5,-20(s0)
     50c:	83a1                	srli	a5,a5,0x8
     50e:	01079693          	slli	a3,a5,0x10
     512:	82c1                	srli	a3,a3,0x10
     514:	fef44783          	lbu	a5,-17(s0)
     518:	00178713          	addi	a4,a5,1
     51c:	fee407a3          	sb	a4,-17(s0)
     520:	873e                	mv	a4,a5
     522:	fd442783          	lw	a5,-44(s0)
     526:	97ba                	add	a5,a5,a4
     528:	0ff6f713          	andi	a4,a3,255
     52c:	a398                	sb	a4,0(a5)
     52e:	a011                	j	532 <parse_cmd+0x178>
     530:	0001                	nop
     532:	fef44783          	lbu	a5,-17(s0)
     536:	853e                	mv	a0,a5
     538:	50b2                	lw	ra,44(sp)
     53a:	5422                	lw	s0,40(sp)
     53c:	6145                	addi	sp,sp,48
     53e:	8082                	ret

00000540 <Calc_CRC16>:
     540:	7179                	addi	sp,sp,-48
     542:	d622                	sw	s0,44(sp)
     544:	1800                	addi	s0,sp,48
     546:	fca42e23          	sw	a0,-36(s0)
     54a:	87ae                	mv	a5,a1
     54c:	fcf40da3          	sb	a5,-37(s0)
     550:	57fd                	li	a5,-1
     552:	fef41723          	sh	a5,-18(s0)
     556:	a881                	j	5a6 <Calc_CRC16+0x66>
     558:	fdc42783          	lw	a5,-36(s0)
     55c:	00178713          	addi	a4,a5,1
     560:	fce42e23          	sw	a4,-36(s0)
     564:	239c                	lbu	a5,0(a5)
     566:	fef41623          	sh	a5,-20(s0)
     56a:	fee45703          	lhu	a4,-18(s0)
     56e:	fec45783          	lhu	a5,-20(s0)
     572:	8fb9                	xor	a5,a5,a4
     574:	07c2                	slli	a5,a5,0x10
     576:	83c1                	srli	a5,a5,0x10
     578:	0ff7f713          	andi	a4,a5,255
     57c:	6791                	lui	a5,0x4
     57e:	0706                	slli	a4,a4,0x1
     580:	19878793          	addi	a5,a5,408 # 4198 <CRC16_Table>
     584:	97ba                	add	a5,a5,a4
     586:	239e                	lhu	a5,0(a5)
     588:	01079713          	slli	a4,a5,0x10
     58c:	8741                	srai	a4,a4,0x10
     58e:	fee45783          	lhu	a5,-18(s0)
     592:	83a1                	srli	a5,a5,0x8
     594:	07c2                	slli	a5,a5,0x10
     596:	83c1                	srli	a5,a5,0x10
     598:	07c2                	slli	a5,a5,0x10
     59a:	87c1                	srai	a5,a5,0x10
     59c:	8fb9                	xor	a5,a5,a4
     59e:	07c2                	slli	a5,a5,0x10
     5a0:	87c1                	srai	a5,a5,0x10
     5a2:	fef41723          	sh	a5,-18(s0)
     5a6:	fdb44783          	lbu	a5,-37(s0)
     5aa:	fff78713          	addi	a4,a5,-1
     5ae:	fce40da3          	sb	a4,-37(s0)
     5b2:	f3dd                	bnez	a5,558 <Calc_CRC16+0x18>
     5b4:	fee45783          	lhu	a5,-18(s0)
     5b8:	853e                	mv	a0,a5
     5ba:	5432                	lw	s0,44(sp)
     5bc:	6145                	addi	sp,sp,48
     5be:	8082                	ret

000005c0 <gpio_init>:
     5c0:	1101                	addi	sp,sp,-32
     5c2:	ce06                	sw	ra,28(sp)
     5c4:	cc22                	sw	s0,24(sp)
     5c6:	1000                	addi	s0,sp,32
     5c8:	fe042223          	sw	zero,-28(s0)
     5cc:	fe042423          	sw	zero,-24(s0)
     5d0:	fe042623          	sw	zero,-20(s0)
     5d4:	4585                	li	a1,1
     5d6:	4511                	li	a0,4
     5d8:	34c020ef          	jal	ra,2924 <RCC_APB2PeriphClockCmd>
     5dc:	4585                	li	a1,1
     5de:	4521                	li	a0,8
     5e0:	344020ef          	jal	ra,2924 <RCC_APB2PeriphClockCmd>
     5e4:	4585                	li	a1,1
     5e6:	4541                	li	a0,16
     5e8:	33c020ef          	jal	ra,2924 <RCC_APB2PeriphClockCmd>
     5ec:	4585                	li	a1,1
     5ee:	4505                	li	a0,1
     5f0:	334020ef          	jal	ra,2924 <RCC_APB2PeriphClockCmd>
     5f4:	67a1                	lui	a5,0x8
     5f6:	fef42223          	sw	a5,-28(s0)
     5fa:	47c1                	li	a5,16
     5fc:	fef42623          	sw	a5,-20(s0)
     600:	4785                	li	a5,1
     602:	fef42423          	sw	a5,-24(s0)
     606:	fe440793          	addi	a5,s0,-28
     60a:	85be                	mv	a1,a5
     60c:	40011537          	lui	a0,0x40011
     610:	365010ef          	jal	ra,2174 <GPIO_Init>
     614:	6791                	lui	a5,0x4
     616:	fef42223          	sw	a5,-28(s0)
     61a:	47c1                	li	a5,16
     61c:	fef42623          	sw	a5,-20(s0)
     620:	4785                	li	a5,1
     622:	fef42423          	sw	a5,-24(s0)
     626:	fe440793          	addi	a5,s0,-28
     62a:	85be                	mv	a1,a5
     62c:	40011537          	lui	a0,0x40011
     630:	345010ef          	jal	ra,2174 <GPIO_Init>
     634:	6785                	lui	a5,0x1
     636:	fef42223          	sw	a5,-28(s0)
     63a:	47c1                	li	a5,16
     63c:	fef42623          	sw	a5,-20(s0)
     640:	4785                	li	a5,1
     642:	fef42423          	sw	a5,-24(s0)
     646:	fe440793          	addi	a5,s0,-28
     64a:	85be                	mv	a1,a5
     64c:	400117b7          	lui	a5,0x40011
     650:	c0078513          	addi	a0,a5,-1024 # 40010c00 <_eusrstack+0x2000bc00>
     654:	321010ef          	jal	ra,2174 <GPIO_Init>
     658:	6785                	lui	a5,0x1
     65a:	80078793          	addi	a5,a5,-2048 # 800 <__stack_size>
     65e:	fef42223          	sw	a5,-28(s0)
     662:	47c1                	li	a5,16
     664:	fef42623          	sw	a5,-20(s0)
     668:	4785                	li	a5,1
     66a:	fef42423          	sw	a5,-24(s0)
     66e:	fe440793          	addi	a5,s0,-28
     672:	85be                	mv	a1,a5
     674:	400117b7          	lui	a5,0x40011
     678:	c0078513          	addi	a0,a5,-1024 # 40010c00 <_eusrstack+0x2000bc00>
     67c:	2f9010ef          	jal	ra,2174 <GPIO_Init>
     680:	47a1                	li	a5,8
     682:	fef42223          	sw	a5,-28(s0)
     686:	47c1                	li	a5,16
     688:	fef42623          	sw	a5,-20(s0)
     68c:	4785                	li	a5,1
     68e:	fef42423          	sw	a5,-24(s0)
     692:	fe440793          	addi	a5,s0,-28
     696:	85be                	mv	a1,a5
     698:	400117b7          	lui	a5,0x40011
     69c:	c0078513          	addi	a0,a5,-1024 # 40010c00 <_eusrstack+0x2000bc00>
     6a0:	2d5010ef          	jal	ra,2174 <GPIO_Init>
     6a4:	4789                	li	a5,2
     6a6:	fef42223          	sw	a5,-28(s0)
     6aa:	47c1                	li	a5,16
     6ac:	fef42623          	sw	a5,-20(s0)
     6b0:	4785                	li	a5,1
     6b2:	fef42423          	sw	a5,-24(s0)
     6b6:	fe440793          	addi	a5,s0,-28
     6ba:	85be                	mv	a1,a5
     6bc:	400117b7          	lui	a5,0x40011
     6c0:	c0078513          	addi	a0,a5,-1024 # 40010c00 <_eusrstack+0x2000bc00>
     6c4:	2b1010ef          	jal	ra,2174 <GPIO_Init>
     6c8:	4785                	li	a5,1
     6ca:	fef42223          	sw	a5,-28(s0)
     6ce:	47c1                	li	a5,16
     6d0:	fef42623          	sw	a5,-20(s0)
     6d4:	4785                	li	a5,1
     6d6:	fef42423          	sw	a5,-24(s0)
     6da:	fe440793          	addi	a5,s0,-28
     6de:	85be                	mv	a1,a5
     6e0:	400117b7          	lui	a5,0x40011
     6e4:	c0078513          	addi	a0,a5,-1024 # 40010c00 <_eusrstack+0x2000bc00>
     6e8:	28d010ef          	jal	ra,2174 <GPIO_Init>
     6ec:	4785                	li	a5,1
     6ee:	fef42223          	sw	a5,-28(s0)
     6f2:	04800793          	li	a5,72
     6f6:	fef42623          	sw	a5,-20(s0)
     6fa:	fe440793          	addi	a5,s0,-28
     6fe:	85be                	mv	a1,a5
     700:	400117b7          	lui	a5,0x40011
     704:	80078513          	addi	a0,a5,-2048 # 40010800 <_eusrstack+0x2000b800>
     708:	26d010ef          	jal	ra,2174 <GPIO_Init>
     70c:	4789                	li	a5,2
     70e:	fef42223          	sw	a5,-28(s0)
     712:	04800793          	li	a5,72
     716:	fef42623          	sw	a5,-20(s0)
     71a:	fe440793          	addi	a5,s0,-28
     71e:	85be                	mv	a1,a5
     720:	400117b7          	lui	a5,0x40011
     724:	80078513          	addi	a0,a5,-2048 # 40010800 <_eusrstack+0x2000b800>
     728:	24d010ef          	jal	ra,2174 <GPIO_Init>
     72c:	47c1                	li	a5,16
     72e:	fef42223          	sw	a5,-28(s0)
     732:	04800793          	li	a5,72
     736:	fef42623          	sw	a5,-20(s0)
     73a:	fe440793          	addi	a5,s0,-28
     73e:	85be                	mv	a1,a5
     740:	400117b7          	lui	a5,0x40011
     744:	80078513          	addi	a0,a5,-2048 # 40010800 <_eusrstack+0x2000b800>
     748:	22d010ef          	jal	ra,2174 <GPIO_Init>
     74c:	02000793          	li	a5,32
     750:	fef42223          	sw	a5,-28(s0)
     754:	04800793          	li	a5,72
     758:	fef42623          	sw	a5,-20(s0)
     75c:	fe440793          	addi	a5,s0,-28
     760:	85be                	mv	a1,a5
     762:	400117b7          	lui	a5,0x40011
     766:	80078513          	addi	a0,a5,-2048 # 40010800 <_eusrstack+0x2000b800>
     76a:	20b010ef          	jal	ra,2174 <GPIO_Init>
     76e:	04000793          	li	a5,64
     772:	fef42223          	sw	a5,-28(s0)
     776:	04800793          	li	a5,72
     77a:	fef42623          	sw	a5,-20(s0)
     77e:	fe440793          	addi	a5,s0,-28
     782:	85be                	mv	a1,a5
     784:	400117b7          	lui	a5,0x40011
     788:	80078513          	addi	a0,a5,-2048 # 40010800 <_eusrstack+0x2000b800>
     78c:	1e9010ef          	jal	ra,2174 <GPIO_Init>
     790:	08000793          	li	a5,128
     794:	fef42223          	sw	a5,-28(s0)
     798:	04800793          	li	a5,72
     79c:	fef42623          	sw	a5,-20(s0)
     7a0:	fe440793          	addi	a5,s0,-28
     7a4:	85be                	mv	a1,a5
     7a6:	400117b7          	lui	a5,0x40011
     7aa:	80078513          	addi	a0,a5,-2048 # 40010800 <_eusrstack+0x2000b800>
     7ae:	1c7010ef          	jal	ra,2174 <GPIO_Init>
     7b2:	0001                	nop
     7b4:	40f2                	lw	ra,28(sp)
     7b6:	4462                	lw	s0,24(sp)
     7b8:	6105                	addi	sp,sp,32
     7ba:	8082                	ret

000007bc <board_init>:
     7bc:	1141                	addi	sp,sp,-16
     7be:	c606                	sw	ra,12(sp)
     7c0:	c422                	sw	s0,8(sp)
     7c2:	0800                	addi	s0,sp,16
     7c4:	3bf5                	jal	5c0 <gpio_init>
     7c6:	0001                	nop
     7c8:	40b2                	lw	ra,12(sp)
     7ca:	4422                	lw	s0,8(sp)
     7cc:	0141                	addi	sp,sp,16
     7ce:	8082                	ret

000007d0 <put_out0>:
     7d0:	1101                	addi	sp,sp,-32
     7d2:	ce06                	sw	ra,28(sp)
     7d4:	cc22                	sw	s0,24(sp)
     7d6:	1000                	addi	s0,sp,32
     7d8:	87aa                	mv	a5,a0
     7da:	fef407a3          	sb	a5,-17(s0)
     7de:	fef44783          	lbu	a5,-17(s0)
     7e2:	8b85                	andi	a5,a5,1
     7e4:	eb81                	bnez	a5,7f4 <put_out0+0x24>
     7e6:	4605                	li	a2,1
     7e8:	65a1                	lui	a1,0x8
     7ea:	40011537          	lui	a0,0x40011
     7ee:	553010ef          	jal	ra,2540 <GPIO_WriteBit>
     7f2:	a039                	j	800 <__stack_size>
     7f4:	4601                	li	a2,0
     7f6:	65a1                	lui	a1,0x8
     7f8:	40011537          	lui	a0,0x40011
     7fc:	545010ef          	jal	ra,2540 <GPIO_WriteBit>
     800:	0001                	nop
     802:	40f2                	lw	ra,28(sp)
     804:	4462                	lw	s0,24(sp)
     806:	6105                	addi	sp,sp,32
     808:	8082                	ret

0000080a <put_out1>:
     80a:	1101                	addi	sp,sp,-32
     80c:	ce06                	sw	ra,28(sp)
     80e:	cc22                	sw	s0,24(sp)
     810:	1000                	addi	s0,sp,32
     812:	87aa                	mv	a5,a0
     814:	fef407a3          	sb	a5,-17(s0)
     818:	fef44783          	lbu	a5,-17(s0)
     81c:	8b85                	andi	a5,a5,1
     81e:	eb81                	bnez	a5,82e <put_out1+0x24>
     820:	4605                	li	a2,1
     822:	6591                	lui	a1,0x4
     824:	40011537          	lui	a0,0x40011
     828:	519010ef          	jal	ra,2540 <GPIO_WriteBit>
     82c:	a039                	j	83a <put_out1+0x30>
     82e:	4601                	li	a2,0
     830:	6591                	lui	a1,0x4
     832:	40011537          	lui	a0,0x40011
     836:	50b010ef          	jal	ra,2540 <GPIO_WriteBit>
     83a:	0001                	nop
     83c:	40f2                	lw	ra,28(sp)
     83e:	4462                	lw	s0,24(sp)
     840:	6105                	addi	sp,sp,32
     842:	8082                	ret

00000844 <put_out2>:
     844:	1101                	addi	sp,sp,-32
     846:	ce06                	sw	ra,28(sp)
     848:	cc22                	sw	s0,24(sp)
     84a:	1000                	addi	s0,sp,32
     84c:	87aa                	mv	a5,a0
     84e:	fef407a3          	sb	a5,-17(s0)
     852:	fef44783          	lbu	a5,-17(s0)
     856:	8b85                	andi	a5,a5,1
     858:	eb91                	bnez	a5,86c <put_out2+0x28>
     85a:	4605                	li	a2,1
     85c:	6585                	lui	a1,0x1
     85e:	400117b7          	lui	a5,0x40011
     862:	c0078513          	addi	a0,a5,-1024 # 40010c00 <_eusrstack+0x2000bc00>
     866:	4db010ef          	jal	ra,2540 <GPIO_WriteBit>
     86a:	a809                	j	87c <put_out2+0x38>
     86c:	4601                	li	a2,0
     86e:	6585                	lui	a1,0x1
     870:	400117b7          	lui	a5,0x40011
     874:	c0078513          	addi	a0,a5,-1024 # 40010c00 <_eusrstack+0x2000bc00>
     878:	4c9010ef          	jal	ra,2540 <GPIO_WriteBit>
     87c:	0001                	nop
     87e:	40f2                	lw	ra,28(sp)
     880:	4462                	lw	s0,24(sp)
     882:	6105                	addi	sp,sp,32
     884:	8082                	ret

00000886 <put_out3>:
     886:	1101                	addi	sp,sp,-32
     888:	ce06                	sw	ra,28(sp)
     88a:	cc22                	sw	s0,24(sp)
     88c:	1000                	addi	s0,sp,32
     88e:	87aa                	mv	a5,a0
     890:	fef407a3          	sb	a5,-17(s0)
     894:	fef44783          	lbu	a5,-17(s0)
     898:	8b85                	andi	a5,a5,1
     89a:	ef81                	bnez	a5,8b2 <put_out3+0x2c>
     89c:	4605                	li	a2,1
     89e:	6785                	lui	a5,0x1
     8a0:	80078593          	addi	a1,a5,-2048 # 800 <__stack_size>
     8a4:	400117b7          	lui	a5,0x40011
     8a8:	c0078513          	addi	a0,a5,-1024 # 40010c00 <_eusrstack+0x2000bc00>
     8ac:	495010ef          	jal	ra,2540 <GPIO_WriteBit>
     8b0:	a819                	j	8c6 <put_out3+0x40>
     8b2:	4601                	li	a2,0
     8b4:	6785                	lui	a5,0x1
     8b6:	80078593          	addi	a1,a5,-2048 # 800 <__stack_size>
     8ba:	400117b7          	lui	a5,0x40011
     8be:	c0078513          	addi	a0,a5,-1024 # 40010c00 <_eusrstack+0x2000bc00>
     8c2:	47f010ef          	jal	ra,2540 <GPIO_WriteBit>
     8c6:	0001                	nop
     8c8:	40f2                	lw	ra,28(sp)
     8ca:	4462                	lw	s0,24(sp)
     8cc:	6105                	addi	sp,sp,32
     8ce:	8082                	ret

000008d0 <put_out4>:
     8d0:	1101                	addi	sp,sp,-32
     8d2:	ce06                	sw	ra,28(sp)
     8d4:	cc22                	sw	s0,24(sp)
     8d6:	1000                	addi	s0,sp,32
     8d8:	87aa                	mv	a5,a0
     8da:	fef407a3          	sb	a5,-17(s0)
     8de:	fef44783          	lbu	a5,-17(s0)
     8e2:	8b85                	andi	a5,a5,1
     8e4:	eb91                	bnez	a5,8f8 <put_out4+0x28>
     8e6:	4605                	li	a2,1
     8e8:	45a1                	li	a1,8
     8ea:	400117b7          	lui	a5,0x40011
     8ee:	c0078513          	addi	a0,a5,-1024 # 40010c00 <_eusrstack+0x2000bc00>
     8f2:	44f010ef          	jal	ra,2540 <GPIO_WriteBit>
     8f6:	a809                	j	908 <put_out4+0x38>
     8f8:	4601                	li	a2,0
     8fa:	45a1                	li	a1,8
     8fc:	400117b7          	lui	a5,0x40011
     900:	c0078513          	addi	a0,a5,-1024 # 40010c00 <_eusrstack+0x2000bc00>
     904:	43d010ef          	jal	ra,2540 <GPIO_WriteBit>
     908:	0001                	nop
     90a:	40f2                	lw	ra,28(sp)
     90c:	4462                	lw	s0,24(sp)
     90e:	6105                	addi	sp,sp,32
     910:	8082                	ret

00000912 <put_out5>:
     912:	1101                	addi	sp,sp,-32
     914:	ce06                	sw	ra,28(sp)
     916:	cc22                	sw	s0,24(sp)
     918:	1000                	addi	s0,sp,32
     91a:	87aa                	mv	a5,a0
     91c:	fef407a3          	sb	a5,-17(s0)
     920:	fef44783          	lbu	a5,-17(s0)
     924:	8b85                	andi	a5,a5,1
     926:	eb91                	bnez	a5,93a <put_out5+0x28>
     928:	4605                	li	a2,1
     92a:	4589                	li	a1,2
     92c:	400117b7          	lui	a5,0x40011
     930:	c0078513          	addi	a0,a5,-1024 # 40010c00 <_eusrstack+0x2000bc00>
     934:	40d010ef          	jal	ra,2540 <GPIO_WriteBit>
     938:	a809                	j	94a <put_out5+0x38>
     93a:	4601                	li	a2,0
     93c:	4589                	li	a1,2
     93e:	400117b7          	lui	a5,0x40011
     942:	c0078513          	addi	a0,a5,-1024 # 40010c00 <_eusrstack+0x2000bc00>
     946:	3fb010ef          	jal	ra,2540 <GPIO_WriteBit>
     94a:	0001                	nop
     94c:	40f2                	lw	ra,28(sp)
     94e:	4462                	lw	s0,24(sp)
     950:	6105                	addi	sp,sp,32
     952:	8082                	ret

00000954 <put_out6>:
     954:	1101                	addi	sp,sp,-32
     956:	ce06                	sw	ra,28(sp)
     958:	cc22                	sw	s0,24(sp)
     95a:	1000                	addi	s0,sp,32
     95c:	87aa                	mv	a5,a0
     95e:	fef407a3          	sb	a5,-17(s0)
     962:	fef44783          	lbu	a5,-17(s0)
     966:	8b85                	andi	a5,a5,1
     968:	eb91                	bnez	a5,97c <put_out6+0x28>
     96a:	4605                	li	a2,1
     96c:	4585                	li	a1,1
     96e:	400117b7          	lui	a5,0x40011
     972:	c0078513          	addi	a0,a5,-1024 # 40010c00 <_eusrstack+0x2000bc00>
     976:	3cb010ef          	jal	ra,2540 <GPIO_WriteBit>
     97a:	a809                	j	98c <put_out6+0x38>
     97c:	4601                	li	a2,0
     97e:	4585                	li	a1,1
     980:	400117b7          	lui	a5,0x40011
     984:	c0078513          	addi	a0,a5,-1024 # 40010c00 <_eusrstack+0x2000bc00>
     988:	3b9010ef          	jal	ra,2540 <GPIO_WriteBit>
     98c:	0001                	nop
     98e:	40f2                	lw	ra,28(sp)
     990:	4462                	lw	s0,24(sp)
     992:	6105                	addi	sp,sp,32
     994:	8082                	ret

00000996 <get_inp>:
     996:	1101                	addi	sp,sp,-32
     998:	ce06                	sw	ra,28(sp)
     99a:	cc22                	sw	s0,24(sp)
     99c:	1000                	addi	s0,sp,32
     99e:	fe0407a3          	sb	zero,-17(s0)
     9a2:	4585                	li	a1,1
     9a4:	400117b7          	lui	a5,0x40011
     9a8:	80078513          	addi	a0,a5,-2048 # 40010800 <_eusrstack+0x2000b800>
     9ac:	35d010ef          	jal	ra,2508 <GPIO_ReadInputDataBit>
     9b0:	87aa                	mv	a5,a0
     9b2:	e799                	bnez	a5,9c0 <get_inp+0x2a>
     9b4:	fef44783          	lbu	a5,-17(s0)
     9b8:	0017e793          	ori	a5,a5,1
     9bc:	fef407a3          	sb	a5,-17(s0)
     9c0:	4589                	li	a1,2
     9c2:	400117b7          	lui	a5,0x40011
     9c6:	80078513          	addi	a0,a5,-2048 # 40010800 <_eusrstack+0x2000b800>
     9ca:	33f010ef          	jal	ra,2508 <GPIO_ReadInputDataBit>
     9ce:	87aa                	mv	a5,a0
     9d0:	e799                	bnez	a5,9de <get_inp+0x48>
     9d2:	fef44783          	lbu	a5,-17(s0)
     9d6:	0027e793          	ori	a5,a5,2
     9da:	fef407a3          	sb	a5,-17(s0)
     9de:	45c1                	li	a1,16
     9e0:	400117b7          	lui	a5,0x40011
     9e4:	80078513          	addi	a0,a5,-2048 # 40010800 <_eusrstack+0x2000b800>
     9e8:	321010ef          	jal	ra,2508 <GPIO_ReadInputDataBit>
     9ec:	87aa                	mv	a5,a0
     9ee:	e799                	bnez	a5,9fc <get_inp+0x66>
     9f0:	fef44783          	lbu	a5,-17(s0)
     9f4:	0047e793          	ori	a5,a5,4
     9f8:	fef407a3          	sb	a5,-17(s0)
     9fc:	02000593          	li	a1,32
     a00:	400117b7          	lui	a5,0x40011
     a04:	80078513          	addi	a0,a5,-2048 # 40010800 <_eusrstack+0x2000b800>
     a08:	301010ef          	jal	ra,2508 <GPIO_ReadInputDataBit>
     a0c:	87aa                	mv	a5,a0
     a0e:	e799                	bnez	a5,a1c <get_inp+0x86>
     a10:	fef44783          	lbu	a5,-17(s0)
     a14:	0087e793          	ori	a5,a5,8
     a18:	fef407a3          	sb	a5,-17(s0)
     a1c:	04000593          	li	a1,64
     a20:	400117b7          	lui	a5,0x40011
     a24:	80078513          	addi	a0,a5,-2048 # 40010800 <_eusrstack+0x2000b800>
     a28:	2e1010ef          	jal	ra,2508 <GPIO_ReadInputDataBit>
     a2c:	87aa                	mv	a5,a0
     a2e:	e799                	bnez	a5,a3c <get_inp+0xa6>
     a30:	fef44783          	lbu	a5,-17(s0)
     a34:	0107e793          	ori	a5,a5,16
     a38:	fef407a3          	sb	a5,-17(s0)
     a3c:	08000593          	li	a1,128
     a40:	400117b7          	lui	a5,0x40011
     a44:	80078513          	addi	a0,a5,-2048 # 40010800 <_eusrstack+0x2000b800>
     a48:	2c1010ef          	jal	ra,2508 <GPIO_ReadInputDataBit>
     a4c:	87aa                	mv	a5,a0
     a4e:	e799                	bnez	a5,a5c <get_inp+0xc6>
     a50:	fef44783          	lbu	a5,-17(s0)
     a54:	0207e793          	ori	a5,a5,32
     a58:	fef407a3          	sb	a5,-17(s0)
     a5c:	fef44783          	lbu	a5,-17(s0)
     a60:	853e                	mv	a0,a5
     a62:	40f2                	lw	ra,28(sp)
     a64:	4462                	lw	s0,24(sp)
     a66:	6105                	addi	sp,sp,32
     a68:	8082                	ret

00000a6a <put_out_n>:
     a6a:	1101                	addi	sp,sp,-32
     a6c:	ce06                	sw	ra,28(sp)
     a6e:	cc22                	sw	s0,24(sp)
     a70:	1000                	addi	s0,sp,32
     a72:	87aa                	mv	a5,a0
     a74:	fef407a3          	sb	a5,-17(s0)
     a78:	fef44783          	lbu	a5,-17(s0)
     a7c:	85be                	mv	a1,a5
     a7e:	6791                	lui	a5,0x4
     a80:	12c78513          	addi	a0,a5,300 # 412c <_read+0xc>
     a84:	4f0020ef          	jal	ra,2f74 <iprintf>
     a88:	fef44783          	lbu	a5,-17(s0)
     a8c:	853e                	mv	a0,a5
     a8e:	3389                	jal	7d0 <put_out0>
     a90:	fef44783          	lbu	a5,-17(s0)
     a94:	8385                	srli	a5,a5,0x1
     a96:	0ff7f793          	andi	a5,a5,255
     a9a:	853e                	mv	a0,a5
     a9c:	33bd                	jal	80a <put_out1>
     a9e:	fef44783          	lbu	a5,-17(s0)
     aa2:	8389                	srli	a5,a5,0x2
     aa4:	0ff7f793          	andi	a5,a5,255
     aa8:	853e                	mv	a0,a5
     aaa:	3b69                	jal	844 <put_out2>
     aac:	fef44783          	lbu	a5,-17(s0)
     ab0:	838d                	srli	a5,a5,0x3
     ab2:	0ff7f793          	andi	a5,a5,255
     ab6:	853e                	mv	a0,a5
     ab8:	33f9                	jal	886 <put_out3>
     aba:	fef44783          	lbu	a5,-17(s0)
     abe:	8391                	srli	a5,a5,0x4
     ac0:	0ff7f793          	andi	a5,a5,255
     ac4:	853e                	mv	a0,a5
     ac6:	3529                	jal	8d0 <put_out4>
     ac8:	fef44783          	lbu	a5,-17(s0)
     acc:	8395                	srli	a5,a5,0x5
     ace:	0ff7f793          	andi	a5,a5,255
     ad2:	853e                	mv	a0,a5
     ad4:	3d3d                	jal	912 <put_out5>
     ad6:	fef44783          	lbu	a5,-17(s0)
     ada:	8399                	srli	a5,a5,0x6
     adc:	0ff7f793          	andi	a5,a5,255
     ae0:	853e                	mv	a0,a5
     ae2:	3d8d                	jal	954 <put_out6>
     ae4:	0001                	nop
     ae6:	40f2                	lw	ra,28(sp)
     ae8:	4462                	lw	s0,24(sp)
     aea:	6105                	addi	sp,sp,32
     aec:	8082                	ret

00000aee <set_out_n>:
     aee:	1101                	addi	sp,sp,-32
     af0:	ce06                	sw	ra,28(sp)
     af2:	cc22                	sw	s0,24(sp)
     af4:	1000                	addi	s0,sp,32
     af6:	87aa                	mv	a5,a0
     af8:	fef407a3          	sb	a5,-17(s0)
     afc:	fef44783          	lbu	a5,-17(s0)
     b00:	85be                	mv	a1,a5
     b02:	6791                	lui	a5,0x4
     b04:	14078513          	addi	a0,a5,320 # 4140 <_read+0x20>
     b08:	46c020ef          	jal	ra,2f74 <iprintf>
     b0c:	fef44783          	lbu	a5,-17(s0)
     b10:	8b85                	andi	a5,a5,1
     b12:	c399                	beqz	a5,b18 <set_out_n+0x2a>
     b14:	4505                	li	a0,1
     b16:	396d                	jal	7d0 <put_out0>
     b18:	fef44783          	lbu	a5,-17(s0)
     b1c:	8385                	srli	a5,a5,0x1
     b1e:	fef407a3          	sb	a5,-17(s0)
     b22:	fef44783          	lbu	a5,-17(s0)
     b26:	8b85                	andi	a5,a5,1
     b28:	c399                	beqz	a5,b2e <set_out_n+0x40>
     b2a:	4505                	li	a0,1
     b2c:	39f9                	jal	80a <put_out1>
     b2e:	fef44783          	lbu	a5,-17(s0)
     b32:	8385                	srli	a5,a5,0x1
     b34:	fef407a3          	sb	a5,-17(s0)
     b38:	fef44783          	lbu	a5,-17(s0)
     b3c:	8b85                	andi	a5,a5,1
     b3e:	c399                	beqz	a5,b44 <set_out_n+0x56>
     b40:	4505                	li	a0,1
     b42:	3309                	jal	844 <put_out2>
     b44:	fef44783          	lbu	a5,-17(s0)
     b48:	8385                	srli	a5,a5,0x1
     b4a:	fef407a3          	sb	a5,-17(s0)
     b4e:	fef44783          	lbu	a5,-17(s0)
     b52:	8b85                	andi	a5,a5,1
     b54:	c399                	beqz	a5,b5a <set_out_n+0x6c>
     b56:	4505                	li	a0,1
     b58:	333d                	jal	886 <put_out3>
     b5a:	fef44783          	lbu	a5,-17(s0)
     b5e:	8385                	srli	a5,a5,0x1
     b60:	fef407a3          	sb	a5,-17(s0)
     b64:	fef44783          	lbu	a5,-17(s0)
     b68:	8b85                	andi	a5,a5,1
     b6a:	c399                	beqz	a5,b70 <set_out_n+0x82>
     b6c:	4505                	li	a0,1
     b6e:	338d                	jal	8d0 <put_out4>
     b70:	fef44783          	lbu	a5,-17(s0)
     b74:	8385                	srli	a5,a5,0x1
     b76:	fef407a3          	sb	a5,-17(s0)
     b7a:	fef44783          	lbu	a5,-17(s0)
     b7e:	8b85                	andi	a5,a5,1
     b80:	c399                	beqz	a5,b86 <set_out_n+0x98>
     b82:	4505                	li	a0,1
     b84:	3379                	jal	912 <put_out5>
     b86:	fef44783          	lbu	a5,-17(s0)
     b8a:	8385                	srli	a5,a5,0x1
     b8c:	fef407a3          	sb	a5,-17(s0)
     b90:	fef44783          	lbu	a5,-17(s0)
     b94:	8b85                	andi	a5,a5,1
     b96:	c399                	beqz	a5,b9c <set_out_n+0xae>
     b98:	4505                	li	a0,1
     b9a:	3b6d                	jal	954 <put_out6>
     b9c:	0001                	nop
     b9e:	40f2                	lw	ra,28(sp)
     ba0:	4462                	lw	s0,24(sp)
     ba2:	6105                	addi	sp,sp,32
     ba4:	8082                	ret

00000ba6 <clr_out_n>:
     ba6:	1101                	addi	sp,sp,-32
     ba8:	ce06                	sw	ra,28(sp)
     baa:	cc22                	sw	s0,24(sp)
     bac:	1000                	addi	s0,sp,32
     bae:	87aa                	mv	a5,a0
     bb0:	fef407a3          	sb	a5,-17(s0)
     bb4:	fef44783          	lbu	a5,-17(s0)
     bb8:	85be                	mv	a1,a5
     bba:	6791                	lui	a5,0x4
     bbc:	15478513          	addi	a0,a5,340 # 4154 <_read+0x34>
     bc0:	3b4020ef          	jal	ra,2f74 <iprintf>
     bc4:	fef44783          	lbu	a5,-17(s0)
     bc8:	8b85                	andi	a5,a5,1
     bca:	c399                	beqz	a5,bd0 <clr_out_n+0x2a>
     bcc:	4501                	li	a0,0
     bce:	3109                	jal	7d0 <put_out0>
     bd0:	fef44783          	lbu	a5,-17(s0)
     bd4:	8385                	srli	a5,a5,0x1
     bd6:	fef407a3          	sb	a5,-17(s0)
     bda:	fef44783          	lbu	a5,-17(s0)
     bde:	8b85                	andi	a5,a5,1
     be0:	c399                	beqz	a5,be6 <clr_out_n+0x40>
     be2:	4501                	li	a0,0
     be4:	311d                	jal	80a <put_out1>
     be6:	fef44783          	lbu	a5,-17(s0)
     bea:	8385                	srli	a5,a5,0x1
     bec:	fef407a3          	sb	a5,-17(s0)
     bf0:	fef44783          	lbu	a5,-17(s0)
     bf4:	8b85                	andi	a5,a5,1
     bf6:	c399                	beqz	a5,bfc <clr_out_n+0x56>
     bf8:	4501                	li	a0,0
     bfa:	31a9                	jal	844 <put_out2>
     bfc:	fef44783          	lbu	a5,-17(s0)
     c00:	8385                	srli	a5,a5,0x1
     c02:	fef407a3          	sb	a5,-17(s0)
     c06:	fef44783          	lbu	a5,-17(s0)
     c0a:	8b85                	andi	a5,a5,1
     c0c:	c399                	beqz	a5,c12 <clr_out_n+0x6c>
     c0e:	4501                	li	a0,0
     c10:	399d                	jal	886 <put_out3>
     c12:	fef44783          	lbu	a5,-17(s0)
     c16:	8385                	srli	a5,a5,0x1
     c18:	fef407a3          	sb	a5,-17(s0)
     c1c:	fef44783          	lbu	a5,-17(s0)
     c20:	8b85                	andi	a5,a5,1
     c22:	c399                	beqz	a5,c28 <clr_out_n+0x82>
     c24:	4501                	li	a0,0
     c26:	316d                	jal	8d0 <put_out4>
     c28:	fef44783          	lbu	a5,-17(s0)
     c2c:	8385                	srli	a5,a5,0x1
     c2e:	fef407a3          	sb	a5,-17(s0)
     c32:	fef44783          	lbu	a5,-17(s0)
     c36:	8b85                	andi	a5,a5,1
     c38:	c399                	beqz	a5,c3e <clr_out_n+0x98>
     c3a:	4501                	li	a0,0
     c3c:	39d9                	jal	912 <put_out5>
     c3e:	fef44783          	lbu	a5,-17(s0)
     c42:	8385                	srli	a5,a5,0x1
     c44:	fef407a3          	sb	a5,-17(s0)
     c48:	fef44783          	lbu	a5,-17(s0)
     c4c:	8b85                	andi	a5,a5,1
     c4e:	c399                	beqz	a5,c54 <clr_out_n+0xae>
     c50:	4501                	li	a0,0
     c52:	3309                	jal	954 <put_out6>
     c54:	0001                	nop
     c56:	40f2                	lw	ra,28(sp)
     c58:	4462                	lw	s0,24(sp)
     c5a:	6105                	addi	sp,sp,32
     c5c:	8082                	ret

00000c5e <NMI_Handler>:
     c5e:	1141                	addi	sp,sp,-16
     c60:	c622                	sw	s0,12(sp)
     c62:	0800                	addi	s0,sp,16
     c64:	a001                	j	c64 <NMI_Handler+0x6>

00000c66 <HardFault_Handler>:
     c66:	1141                	addi	sp,sp,-16
     c68:	c622                	sw	s0,12(sp)
     c6a:	0800                	addi	s0,sp,16
     c6c:	a001                	j	c6c <HardFault_Handler+0x6>

00000c6e <USBFS_RCC_Init>:
     c6e:	1141                	addi	sp,sp,-16
     c70:	c606                	sw	ra,12(sp)
     c72:	c422                	sw	s0,8(sp)
     c74:	0800                	addi	s0,sp,16
     c76:	4585                	li	a1,1
     c78:	4505                	li	a0,1
     c7a:	4ab010ef          	jal	ra,2924 <RCC_APB2PeriphClockCmd>
     c7e:	4585                	li	a1,1
     c80:	6505                	lui	a0,0x1
     c82:	45d010ef          	jal	ra,28de <RCC_AHBPeriphClockCmd>
     c86:	0001                	nop
     c88:	40b2                	lw	ra,12(sp)
     c8a:	4422                	lw	s0,8(sp)
     c8c:	0141                	addi	sp,sp,16
     c8e:	8082                	ret

00000c90 <USBFS_Device_Endp_Init>:
     c90:	1101                	addi	sp,sp,-32
     c92:	ce22                	sw	s0,28(sp)
     c94:	1000                	addi	s0,sp,32
     c96:	400237b7          	lui	a5,0x40023
     c9a:	40078793          	addi	a5,a5,1024 # 40023400 <_eusrstack+0x2001e400>
     c9e:	04000713          	li	a4,64
     ca2:	a7d8                	sb	a4,12(a5)
     ca4:	400237b7          	lui	a5,0x40023
     ca8:	40078793          	addi	a5,a5,1024 # 40023400 <_eusrstack+0x2001e400>
     cac:	04800713          	li	a4,72
     cb0:	b7d8                	sb	a4,13(a5)
     cb2:	400237b7          	lui	a5,0x40023
     cb6:	40078793          	addi	a5,a5,1024 # 40023400 <_eusrstack+0x2001e400>
     cba:	85c18713          	addi	a4,gp,-1956 # 200000dc <USBFS_EP0_4Buf>
     cbe:	cb98                	sw	a4,16(a5)
     cc0:	400237b7          	lui	a5,0x40023
     cc4:	40078793          	addi	a5,a5,1024 # 40023400 <_eusrstack+0x2001e400>
     cc8:	89c18713          	addi	a4,gp,-1892 # 2000011c <USBFS_EP1_Buf>
     ccc:	cbd8                	sw	a4,20(a5)
     cce:	400237b7          	lui	a5,0x40023
     cd2:	40078793          	addi	a5,a5,1024 # 40023400 <_eusrstack+0x2001e400>
     cd6:	20000737          	lui	a4,0x20000
     cda:	19c70713          	addi	a4,a4,412 # 2000019c <USB_Rx_Buf>
     cde:	cf98                	sw	a4,24(a5)
     ce0:	400237b7          	lui	a5,0x40023
     ce4:	40078793          	addi	a5,a5,1024 # 40023400 <_eusrstack+0x2001e400>
     ce8:	8dc18713          	addi	a4,gp,-1828 # 2000015c <USBFS_EP3_Buf>
     cec:	cfd8                	sw	a4,28(a5)
     cee:	400237b7          	lui	a5,0x40023
     cf2:	40078793          	addi	a5,a5,1024 # 40023400 <_eusrstack+0x2001e400>
     cf6:	4709                	li	a4,2
     cf8:	b3ba                	sh	a4,34(a5)
     cfa:	400237b7          	lui	a5,0x40023
     cfe:	40078793          	addi	a5,a5,1024 # 40023400 <_eusrstack+0x2001e400>
     d02:	02079523          	sh	zero,42(a5)
     d06:	400237b7          	lui	a5,0x40023
     d0a:	40078793          	addi	a5,a5,1024 # 40023400 <_eusrstack+0x2001e400>
     d0e:	02079223          	sh	zero,36(a5)
     d12:	400237b7          	lui	a5,0x40023
     d16:	40078793          	addi	a5,a5,1024 # 40023400 <_eusrstack+0x2001e400>
     d1a:	02079623          	sh	zero,44(a5)
     d1e:	400237b7          	lui	a5,0x40023
     d22:	40078793          	addi	a5,a5,1024 # 40023400 <_eusrstack+0x2001e400>
     d26:	4709                	li	a4,2
     d28:	b3fa                	sh	a4,38(a5)
     d2a:	400237b7          	lui	a5,0x40023
     d2e:	40078793          	addi	a5,a5,1024 # 40023400 <_eusrstack+0x2001e400>
     d32:	4709                	li	a4,2
     d34:	b7fa                	sh	a4,46(a5)
     d36:	fe0407a3          	sb	zero,-17(s0)
     d3a:	a829                	j	d54 <USBFS_Device_Endp_Init+0xc4>
     d3c:	fef44703          	lbu	a4,-17(s0)
     d40:	83018793          	addi	a5,gp,-2000 # 200000b0 <USBFS_Endp_Busy>
     d44:	97ba                	add	a5,a5,a4
     d46:	00078023          	sb	zero,0(a5)
     d4a:	fef44783          	lbu	a5,-17(s0)
     d4e:	0785                	addi	a5,a5,1
     d50:	fef407a3          	sb	a5,-17(s0)
     d54:	fef44703          	lbu	a4,-17(s0)
     d58:	479d                	li	a5,7
     d5a:	fee7f1e3          	bgeu	a5,a4,d3c <USBFS_Device_Endp_Init+0xac>
     d5e:	0001                	nop
     d60:	4472                	lw	s0,28(sp)
     d62:	6105                	addi	sp,sp,32
     d64:	8082                	ret

00000d66 <GPIO_USB_INIT>:
     d66:	1101                	addi	sp,sp,-32
     d68:	ce06                	sw	ra,28(sp)
     d6a:	cc22                	sw	s0,24(sp)
     d6c:	1000                	addi	s0,sp,32
     d6e:	fe042223          	sw	zero,-28(s0)
     d72:	fe042423          	sw	zero,-24(s0)
     d76:	fe042623          	sw	zero,-20(s0)
     d7a:	4585                	li	a1,1
     d7c:	4541                	li	a0,16
     d7e:	3a7010ef          	jal	ra,2924 <RCC_APB2PeriphClockCmd>
     d82:	67c1                	lui	a5,0x10
     d84:	fef42223          	sw	a5,-28(s0)
     d88:	4791                	li	a5,4
     d8a:	fef42623          	sw	a5,-20(s0)
     d8e:	fe440793          	addi	a5,s0,-28
     d92:	85be                	mv	a1,a5
     d94:	40011537          	lui	a0,0x40011
     d98:	3dc010ef          	jal	ra,2174 <GPIO_Init>
     d9c:	000207b7          	lui	a5,0x20
     da0:	fef42223          	sw	a5,-28(s0)
     da4:	04800793          	li	a5,72
     da8:	fef42623          	sw	a5,-20(s0)
     dac:	fe440793          	addi	a5,s0,-28
     db0:	85be                	mv	a1,a5
     db2:	40011537          	lui	a0,0x40011
     db6:	3be010ef          	jal	ra,2174 <GPIO_Init>
     dba:	0001                	nop
     dbc:	40f2                	lw	ra,28(sp)
     dbe:	4462                	lw	s0,24(sp)
     dc0:	6105                	addi	sp,sp,32
     dc2:	8082                	ret

00000dc4 <USBFS_Device_Init>:
     dc4:	7179                	addi	sp,sp,-48
     dc6:	d606                	sw	ra,44(sp)
     dc8:	d422                	sw	s0,40(sp)
     dca:	1800                	addi	s0,sp,48
     dcc:	fca42e23          	sw	a0,-36(s0)
     dd0:	fcb42c23          	sw	a1,-40(s0)
     dd4:	fdc42783          	lw	a5,-36(s0)
     dd8:	c7d5                	beqz	a5,e84 <USBFS_Device_Init+0xc0>
     dda:	3771                	jal	d66 <GPIO_USB_INIT>
     ddc:	fd842783          	lw	a5,-40(s0)
     de0:	ef81                	bnez	a5,df8 <USBFS_Device_Init+0x34>
     de2:	400107b7          	lui	a5,0x40010
     de6:	4f9c                	lw	a5,24(a5)
     de8:	f307f713          	andi	a4,a5,-208
     dec:	400107b7          	lui	a5,0x40010
     df0:	08876713          	ori	a4,a4,136
     df4:	cf98                	sw	a4,24(a5)
     df6:	a819                	j	e0c <USBFS_Device_Init+0x48>
     df8:	400107b7          	lui	a5,0x40010
     dfc:	4f9c                	lw	a5,24(a5)
     dfe:	f307f713          	andi	a4,a5,-208
     e02:	400107b7          	lui	a5,0x40010
     e06:	0cc76713          	ori	a4,a4,204
     e0a:	cf98                	sw	a4,24(a5)
     e0c:	400237b7          	lui	a5,0x40023
     e10:	40078793          	addi	a5,a5,1024 # 40023400 <_eusrstack+0x2001e400>
     e14:	00078023          	sb	zero,0(a5)
     e18:	3da5                	jal	c90 <USBFS_Device_Endp_Init>
     e1a:	400237b7          	lui	a5,0x40023
     e1e:	40078793          	addi	a5,a5,1024 # 40023400 <_eusrstack+0x2001e400>
     e22:	000781a3          	sb	zero,3(a5)
     e26:	400237b7          	lui	a5,0x40023
     e2a:	40078793          	addi	a5,a5,1024 # 40023400 <_eusrstack+0x2001e400>
     e2e:	02900713          	li	a4,41
     e32:	a398                	sb	a4,0(a5)
     e34:	400237b7          	lui	a5,0x40023
     e38:	40078793          	addi	a5,a5,1024 # 40023400 <_eusrstack+0x2001e400>
     e3c:	577d                	li	a4,-1
     e3e:	a3f8                	sb	a4,6(a5)
     e40:	400237b7          	lui	a5,0x40023
     e44:	40078793          	addi	a5,a5,1024 # 40023400 <_eusrstack+0x2001e400>
     e48:	f8100713          	li	a4,-127
     e4c:	b398                	sb	a4,1(a5)
     e4e:	400237b7          	lui	a5,0x40023
     e52:	40078793          	addi	a5,a5,1024 # 40023400 <_eusrstack+0x2001e400>
     e56:	471d                	li	a4,7
     e58:	a3b8                	sb	a4,2(a5)
     e5a:	02d00793          	li	a5,45
     e5e:	fef42623          	sw	a5,-20(s0)
     e62:	fec42783          	lw	a5,-20(s0)
     e66:	8bfd                	andi	a5,a5,31
     e68:	4705                	li	a4,1
     e6a:	00f716b3          	sll	a3,a4,a5
     e6e:	e000e737          	lui	a4,0xe000e
     e72:	fec42783          	lw	a5,-20(s0)
     e76:	8395                	srli	a5,a5,0x5
     e78:	04078793          	addi	a5,a5,64
     e7c:	078a                	slli	a5,a5,0x2
     e7e:	97ba                	add	a5,a5,a4
     e80:	c394                	sw	a3,0(a5)
     e82:	a8a1                	j	eda <USBFS_Device_Init+0x116>
     e84:	400107b7          	lui	a5,0x40010
     e88:	4f98                	lw	a4,24(a5)
     e8a:	400107b7          	lui	a5,0x40010
     e8e:	f7077713          	andi	a4,a4,-144
     e92:	cf98                	sw	a4,24(a5)
     e94:	400237b7          	lui	a5,0x40023
     e98:	40078793          	addi	a5,a5,1024 # 40023400 <_eusrstack+0x2001e400>
     e9c:	4719                	li	a4,6
     e9e:	a398                	sb	a4,0(a5)
     ea0:	4529                	li	a0,10
     ea2:	5cf010ef          	jal	ra,2c70 <Delay_Us>
     ea6:	400237b7          	lui	a5,0x40023
     eaa:	40078793          	addi	a5,a5,1024 # 40023400 <_eusrstack+0x2001e400>
     eae:	00078023          	sb	zero,0(a5)
     eb2:	02d00793          	li	a5,45
     eb6:	fef42423          	sw	a5,-24(s0)
     eba:	fe842783          	lw	a5,-24(s0)
     ebe:	8bfd                	andi	a5,a5,31
     ec0:	4705                	li	a4,1
     ec2:	00f716b3          	sll	a3,a4,a5
     ec6:	e000e737          	lui	a4,0xe000e
     eca:	fe842783          	lw	a5,-24(s0)
     ece:	8395                	srli	a5,a5,0x5
     ed0:	06078793          	addi	a5,a5,96
     ed4:	078a                	slli	a5,a5,0x2
     ed6:	97ba                	add	a5,a5,a4
     ed8:	c394                	sw	a3,0(a5)
     eda:	0001                	nop
     edc:	50b2                	lw	ra,44(sp)
     ede:	5422                	lw	s0,40(sp)
     ee0:	6145                	addi	sp,sp,48
     ee2:	8082                	ret

00000ee4 <USBFS_Endp_DataUp>:
     ee4:	7179                	addi	sp,sp,-48
     ee6:	d606                	sw	ra,44(sp)
     ee8:	d422                	sw	s0,40(sp)
     eea:	1800                	addi	s0,sp,48
     eec:	87aa                	mv	a5,a0
     eee:	fcb42c23          	sw	a1,-40(s0)
     ef2:	8736                	mv	a4,a3
     ef4:	fcf40fa3          	sb	a5,-33(s0)
     ef8:	87b2                	mv	a5,a2
     efa:	fcf41e23          	sh	a5,-36(s0)
     efe:	87ba                	mv	a5,a4
     f00:	fcf40f23          	sb	a5,-34(s0)
     f04:	fdf44783          	lbu	a5,-33(s0)
     f08:	26078f63          	beqz	a5,1186 <USBFS_Endp_DataUp+0x2a2>
     f0c:	fdf44703          	lbu	a4,-33(s0)
     f10:	479d                	li	a5,7
     f12:	26e7ea63          	bltu	a5,a4,1186 <USBFS_Endp_DataUp+0x2a2>
     f16:	fdf44703          	lbu	a4,-33(s0)
     f1a:	83018793          	addi	a5,gp,-2000 # 200000b0 <USBFS_Endp_Busy>
     f1e:	97ba                	add	a5,a5,a4
     f20:	239c                	lbu	a5,0(a5)
     f22:	0ff7f793          	andi	a5,a5,255
     f26:	24079e63          	bnez	a5,1182 <USBFS_Endp_DataUp+0x29e>
     f2a:	fdf44703          	lbu	a4,-33(s0)
     f2e:	4785                	li	a5,1
     f30:	00f70763          	beq	a4,a5,f3e <USBFS_Endp_DataUp+0x5a>
     f34:	fdf44703          	lbu	a4,-33(s0)
     f38:	4791                	li	a5,4
     f3a:	02f71463          	bne	a4,a5,f62 <USBFS_Endp_DataUp+0x7e>
     f3e:	400237b7          	lui	a5,0x40023
     f42:	40c78793          	addi	a5,a5,1036 # 4002340c <_eusrstack+0x2001e40c>
     f46:	239c                	lbu	a5,0(a5)
     f48:	fef407a3          	sb	a5,-17(s0)
     f4c:	fdf44703          	lbu	a4,-33(s0)
     f50:	4785                	li	a5,1
     f52:	08f71763          	bne	a4,a5,fe0 <USBFS_Endp_DataUp+0xfc>
     f56:	fef44783          	lbu	a5,-17(s0)
     f5a:	8391                	srli	a5,a5,0x4
     f5c:	fef407a3          	sb	a5,-17(s0)
     f60:	a041                	j	fe0 <USBFS_Endp_DataUp+0xfc>
     f62:	fdf44703          	lbu	a4,-33(s0)
     f66:	4789                	li	a5,2
     f68:	00f70763          	beq	a4,a5,f76 <USBFS_Endp_DataUp+0x92>
     f6c:	fdf44703          	lbu	a4,-33(s0)
     f70:	478d                	li	a5,3
     f72:	02f71463          	bne	a4,a5,f9a <USBFS_Endp_DataUp+0xb6>
     f76:	400237b7          	lui	a5,0x40023
     f7a:	40d78793          	addi	a5,a5,1037 # 4002340d <_eusrstack+0x2001e40d>
     f7e:	239c                	lbu	a5,0(a5)
     f80:	fef407a3          	sb	a5,-17(s0)
     f84:	fdf44703          	lbu	a4,-33(s0)
     f88:	478d                	li	a5,3
     f8a:	04f71b63          	bne	a4,a5,fe0 <USBFS_Endp_DataUp+0xfc>
     f8e:	fef44783          	lbu	a5,-17(s0)
     f92:	8391                	srli	a5,a5,0x4
     f94:	fef407a3          	sb	a5,-17(s0)
     f98:	a0a1                	j	fe0 <USBFS_Endp_DataUp+0xfc>
     f9a:	fdf44703          	lbu	a4,-33(s0)
     f9e:	4795                	li	a5,5
     fa0:	00f70763          	beq	a4,a5,fae <USBFS_Endp_DataUp+0xca>
     fa4:	fdf44703          	lbu	a4,-33(s0)
     fa8:	4799                	li	a5,6
     faa:	02f71463          	bne	a4,a5,fd2 <USBFS_Endp_DataUp+0xee>
     fae:	400237b7          	lui	a5,0x40023
     fb2:	40e78793          	addi	a5,a5,1038 # 4002340e <_eusrstack+0x2001e40e>
     fb6:	239c                	lbu	a5,0(a5)
     fb8:	fef407a3          	sb	a5,-17(s0)
     fbc:	fdf44703          	lbu	a4,-33(s0)
     fc0:	4799                	li	a5,6
     fc2:	00f71f63          	bne	a4,a5,fe0 <USBFS_Endp_DataUp+0xfc>
     fc6:	fef44783          	lbu	a5,-17(s0)
     fca:	8391                	srli	a5,a5,0x4
     fcc:	fef407a3          	sb	a5,-17(s0)
     fd0:	a801                	j	fe0 <USBFS_Endp_DataUp+0xfc>
     fd2:	400237b7          	lui	a5,0x40023
     fd6:	40f78793          	addi	a5,a5,1039 # 4002340f <_eusrstack+0x2001e40f>
     fda:	239c                	lbu	a5,0(a5)
     fdc:	fef407a3          	sb	a5,-17(s0)
     fe0:	fef44783          	lbu	a5,-17(s0)
     fe4:	8b91                	andi	a5,a5,4
     fe6:	1a078263          	beqz	a5,118a <USBFS_Endp_DataUp+0x2a6>
     fea:	fef44783          	lbu	a5,-17(s0)
     fee:	8ba1                	andi	a5,a5,8
     ff0:	c3b9                	beqz	a5,1036 <USBFS_Endp_DataUp+0x152>
     ff2:	fef44783          	lbu	a5,-17(s0)
     ff6:	8b85                	andi	a5,a5,1
     ff8:	cb95                	beqz	a5,102c <USBFS_Endp_DataUp+0x148>
     ffa:	fdf44783          	lbu	a5,-33(s0)
     ffe:	00279713          	slli	a4,a5,0x2
    1002:	400237b7          	lui	a5,0x40023
    1006:	42278793          	addi	a5,a5,1058 # 40023422 <_eusrstack+0x2001e422>
    100a:	97ba                	add	a5,a5,a4
    100c:	239c                	lbu	a5,0(a5)
    100e:	0ff7f793          	andi	a5,a5,255
    1012:	0407f793          	andi	a5,a5,64
    1016:	c791                	beqz	a5,1022 <USBFS_Endp_DataUp+0x13e>
    1018:	fc000793          	li	a5,-64
    101c:	fef40723          	sb	a5,-18(s0)
    1020:	a881                	j	1070 <USBFS_Endp_DataUp+0x18c>
    1022:	f8000793          	li	a5,-128
    1026:	fef40723          	sb	a5,-18(s0)
    102a:	a099                	j	1070 <USBFS_Endp_DataUp+0x18c>
    102c:	04000793          	li	a5,64
    1030:	fef40723          	sb	a5,-18(s0)
    1034:	a835                	j	1070 <USBFS_Endp_DataUp+0x18c>
    1036:	fef44783          	lbu	a5,-17(s0)
    103a:	8b85                	andi	a5,a5,1
    103c:	cb85                	beqz	a5,106c <USBFS_Endp_DataUp+0x188>
    103e:	fdf44783          	lbu	a5,-33(s0)
    1042:	00279713          	slli	a4,a5,0x2
    1046:	400237b7          	lui	a5,0x40023
    104a:	42278793          	addi	a5,a5,1058 # 40023422 <_eusrstack+0x2001e422>
    104e:	97ba                	add	a5,a5,a4
    1050:	239c                	lbu	a5,0(a5)
    1052:	0ff7f793          	andi	a5,a5,255
    1056:	0407f793          	andi	a5,a5,64
    105a:	c791                	beqz	a5,1066 <USBFS_Endp_DataUp+0x182>
    105c:	04000793          	li	a5,64
    1060:	fef40723          	sb	a5,-18(s0)
    1064:	a031                	j	1070 <USBFS_Endp_DataUp+0x18c>
    1066:	fe040723          	sb	zero,-18(s0)
    106a:	a019                	j	1070 <USBFS_Endp_DataUp+0x18c>
    106c:	fe040723          	sb	zero,-18(s0)
    1070:	fee44783          	lbu	a5,-18(s0)
    1074:	ebb1                	bnez	a5,10c8 <USBFS_Endp_DataUp+0x1e4>
    1076:	fde44783          	lbu	a5,-34(s0)
    107a:	e38d                	bnez	a5,109c <USBFS_Endp_DataUp+0x1b8>
    107c:	fd842783          	lw	a5,-40(s0)
    1080:	01079693          	slli	a3,a5,0x10
    1084:	82c1                	srli	a3,a3,0x10
    1086:	fdf44703          	lbu	a4,-33(s0)
    108a:	100097b7          	lui	a5,0x10009
    108e:	d0478793          	addi	a5,a5,-764 # 10008d04 <_data_lma+0x10004808>
    1092:	97ba                	add	a5,a5,a4
    1094:	078a                	slli	a5,a5,0x2
    1096:	8736                	mv	a4,a3
    1098:	c398                	sw	a4,0(a5)
    109a:	a8b9                	j	10f8 <USBFS_Endp_DataUp+0x214>
    109c:	fdf44703          	lbu	a4,-33(s0)
    10a0:	100097b7          	lui	a5,0x10009
    10a4:	d0478793          	addi	a5,a5,-764 # 10008d04 <_data_lma+0x10004808>
    10a8:	97ba                	add	a5,a5,a4
    10aa:	078a                	slli	a5,a5,0x2
    10ac:	4398                	lw	a4,0(a5)
    10ae:	200007b7          	lui	a5,0x20000
    10b2:	97ba                	add	a5,a5,a4
    10b4:	873e                	mv	a4,a5
    10b6:	fdc45783          	lhu	a5,-36(s0)
    10ba:	863e                	mv	a2,a5
    10bc:	fd842583          	lw	a1,-40(s0)
    10c0:	853a                	mv	a0,a4
    10c2:	601010ef          	jal	ra,2ec2 <memcpy>
    10c6:	a80d                	j	10f8 <USBFS_Endp_DataUp+0x214>
    10c8:	fee44703          	lbu	a4,-18(s0)
    10cc:	fdf44683          	lbu	a3,-33(s0)
    10d0:	100097b7          	lui	a5,0x10009
    10d4:	d0478793          	addi	a5,a5,-764 # 10008d04 <_data_lma+0x10004808>
    10d8:	97b6                	add	a5,a5,a3
    10da:	078a                	slli	a5,a5,0x2
    10dc:	439c                	lw	a5,0(a5)
    10de:	973e                	add	a4,a4,a5
    10e0:	200007b7          	lui	a5,0x20000
    10e4:	97ba                	add	a5,a5,a4
    10e6:	873e                	mv	a4,a5
    10e8:	fdc45783          	lhu	a5,-36(s0)
    10ec:	863e                	mv	a2,a5
    10ee:	fd842583          	lw	a1,-40(s0)
    10f2:	853a                	mv	a0,a4
    10f4:	5cf010ef          	jal	ra,2ec2 <memcpy>
    10f8:	fdf44703          	lbu	a4,-33(s0)
    10fc:	100097b7          	lui	a5,0x10009
    1100:	d0878793          	addi	a5,a5,-760 # 10008d08 <_data_lma+0x1000480c>
    1104:	97ba                	add	a5,a5,a4
    1106:	078a                	slli	a5,a5,0x2
    1108:	873e                	mv	a4,a5
    110a:	fdc45783          	lhu	a5,-36(s0)
    110e:	a31e                	sh	a5,0(a4)
    1110:	fdc45703          	lhu	a4,-36(s0)
    1114:	479d                	li	a5,7
    1116:	00f70c63          	beq	a4,a5,112e <USBFS_Endp_DataUp+0x24a>
    111a:	8401c783          	lbu	a5,-1984(gp) # 200000c0 <tst>
    111e:	0ff7f793          	andi	a5,a5,255
    1122:	0785                	addi	a5,a5,1
    1124:	0ff7f713          	andi	a4,a5,255
    1128:	84e18023          	sb	a4,-1984(gp) # 200000c0 <tst>
    112c:	a811                	j	1140 <USBFS_Endp_DataUp+0x25c>
    112e:	8411c783          	lbu	a5,-1983(gp) # 200000c1 <ok_tst>
    1132:	0ff7f793          	andi	a5,a5,255
    1136:	0785                	addi	a5,a5,1
    1138:	0ff7f713          	andi	a4,a5,255
    113c:	84e180a3          	sb	a4,-1983(gp) # 200000c1 <ok_tst>
    1140:	fdf44783          	lbu	a5,-33(s0)
    1144:	00279713          	slli	a4,a5,0x2
    1148:	400237b7          	lui	a5,0x40023
    114c:	42278793          	addi	a5,a5,1058 # 40023422 <_eusrstack+0x2001e422>
    1150:	97ba                	add	a5,a5,a4
    1152:	239c                	lbu	a5,0(a5)
    1154:	0ff7f793          	andi	a5,a5,255
    1158:	fdf44703          	lbu	a4,-33(s0)
    115c:	00271693          	slli	a3,a4,0x2
    1160:	40023737          	lui	a4,0x40023
    1164:	42270713          	addi	a4,a4,1058 # 40023422 <_eusrstack+0x2001e422>
    1168:	9736                	add	a4,a4,a3
    116a:	9bf1                	andi	a5,a5,-4
    116c:	0ff7f793          	andi	a5,a5,255
    1170:	a31c                	sb	a5,0(a4)
    1172:	fdf44703          	lbu	a4,-33(s0)
    1176:	83018793          	addi	a5,gp,-2000 # 200000b0 <USBFS_Endp_Busy>
    117a:	97ba                	add	a5,a5,a4
    117c:	4705                	li	a4,1
    117e:	a398                	sb	a4,0(a5)
    1180:	a029                	j	118a <USBFS_Endp_DataUp+0x2a6>
    1182:	4785                	li	a5,1
    1184:	a029                	j	118e <USBFS_Endp_DataUp+0x2aa>
    1186:	4785                	li	a5,1
    1188:	a019                	j	118e <USBFS_Endp_DataUp+0x2aa>
    118a:	0001                	nop
    118c:	4781                	li	a5,0
    118e:	853e                	mv	a0,a5
    1190:	50b2                	lw	ra,44(sp)
    1192:	5422                	lw	s0,40(sp)
    1194:	6145                	addi	sp,sp,48
    1196:	8082                	ret

00001198 <USBFS_IRQHandler>:
    1198:	1101                	addi	sp,sp,-32
    119a:	ce22                	sw	s0,28(sp)
    119c:	1000                	addi	s0,sp,32
    119e:	400237b7          	lui	a5,0x40023
    11a2:	40078793          	addi	a5,a5,1024 # 40023400 <_eusrstack+0x2001e400>
    11a6:	23fc                	lbu	a5,6(a5)
    11a8:	fef40423          	sb	a5,-24(s0)
    11ac:	400237b7          	lui	a5,0x40023
    11b0:	40078793          	addi	a5,a5,1024 # 40023400 <_eusrstack+0x2001e400>
    11b4:	33fc                	lbu	a5,7(a5)
    11b6:	fef403a3          	sb	a5,-25(s0)
    11ba:	fe844783          	lbu	a5,-24(s0)
    11be:	8b89                	andi	a5,a5,2
    11c0:	2e078de3          	beqz	a5,1cba <USBFS_IRQHandler+0xb22>
    11c4:	fe744783          	lbu	a5,-25(s0)
    11c8:	0307f793          	andi	a5,a5,48
    11cc:	4741                	li	a4,16
    11ce:	2ce78ee3          	beq	a5,a4,1caa <USBFS_IRQHandler+0xb12>
    11d2:	4741                	li	a4,16
    11d4:	00f74663          	blt	a4,a5,11e0 <USBFS_IRQHandler+0x48>
    11d8:	20078a63          	beqz	a5,13ec <USBFS_IRQHandler+0x254>
    11dc:	2d10006f          	j	1cac <USBFS_IRQHandler+0xb14>
    11e0:	02000713          	li	a4,32
    11e4:	00e78863          	beq	a5,a4,11f4 <USBFS_IRQHandler+0x5c>
    11e8:	03000713          	li	a4,48
    11ec:	3ee78963          	beq	a5,a4,15de <USBFS_IRQHandler+0x446>
    11f0:	2bd0006f          	j	1cac <USBFS_IRQHandler+0xb14>
    11f4:	fe744783          	lbu	a5,-25(s0)
    11f8:	03f7f793          	andi	a5,a5,63
    11fc:	02100713          	li	a4,33
    1200:	12e78463          	beq	a5,a4,1328 <USBFS_IRQHandler+0x190>
    1204:	02300713          	li	a4,35
    1208:	16e78e63          	beq	a5,a4,1384 <USBFS_IRQHandler+0x1ec>
    120c:	02000713          	li	a4,32
    1210:	1ce79863          	bne	a5,a4,13e0 <USBFS_IRQHandler+0x248>
    1214:	82a1d783          	lhu	a5,-2006(gp) # 200000aa <USBFS_SetupReqLen>
    1218:	07c2                	slli	a5,a5,0x10
    121a:	83c1                	srli	a5,a5,0x10
    121c:	eb81                	bnez	a5,122c <USBFS_IRQHandler+0x94>
    121e:	400237b7          	lui	a5,0x40023
    1222:	40078793          	addi	a5,a5,1024 # 40023400 <_eusrstack+0x2001e400>
    1226:	08000713          	li	a4,128
    122a:	b3ba                	sh	a4,34(a5)
    122c:	8251c783          	lbu	a5,-2011(gp) # 200000a5 <USBFS_SetupReqType>
    1230:	0ff7f793          	andi	a5,a5,255
    1234:	0607f793          	andi	a5,a5,96
    1238:	1a079763          	bnez	a5,13e6 <USBFS_IRQHandler+0x24e>
    123c:	8241c783          	lbu	a5,-2012(gp) # 200000a4 <USBFS_SetupReqCode>
    1240:	0ff7f793          	andi	a5,a5,255
    1244:	4715                	li	a4,5
    1246:	08e78f63          	beq	a5,a4,12e4 <USBFS_IRQHandler+0x14c>
    124a:	4719                	li	a4,6
    124c:	0ce79c63          	bne	a5,a4,1324 <USBFS_IRQHandler+0x18c>
    1250:	82a1d783          	lhu	a5,-2006(gp) # 200000aa <USBFS_SetupReqLen>
    1254:	01079713          	slli	a4,a5,0x10
    1258:	8341                	srli	a4,a4,0x10
    125a:	03f00793          	li	a5,63
    125e:	00e7e763          	bltu	a5,a4,126c <USBFS_IRQHandler+0xd4>
    1262:	82a1d783          	lhu	a5,-2006(gp) # 200000aa <USBFS_SetupReqLen>
    1266:	07c2                	slli	a5,a5,0x10
    1268:	83c1                	srli	a5,a5,0x10
    126a:	a019                	j	1270 <USBFS_IRQHandler+0xd8>
    126c:	04000793          	li	a5,64
    1270:	fef41623          	sh	a5,-20(s0)
    1274:	8201a783          	lw	a5,-2016(gp) # 200000a0 <_edata>
    1278:	fec45703          	lhu	a4,-20(s0)
    127c:	863a                	mv	a2,a4
    127e:	85be                	mv	a1,a5
    1280:	85c18513          	addi	a0,gp,-1956 # 200000dc <USBFS_EP0_4Buf>
    1284:	43f010ef          	jal	ra,2ec2 <memcpy>
    1288:	82a1d783          	lhu	a5,-2006(gp) # 200000aa <USBFS_SetupReqLen>
    128c:	01079713          	slli	a4,a5,0x10
    1290:	8341                	srli	a4,a4,0x10
    1292:	fec45783          	lhu	a5,-20(s0)
    1296:	40f707b3          	sub	a5,a4,a5
    129a:	01079713          	slli	a4,a5,0x10
    129e:	8341                	srli	a4,a4,0x10
    12a0:	82e19523          	sh	a4,-2006(gp) # 200000aa <USBFS_SetupReqLen>
    12a4:	8201a703          	lw	a4,-2016(gp) # 200000a0 <_edata>
    12a8:	fec45783          	lhu	a5,-20(s0)
    12ac:	973e                	add	a4,a4,a5
    12ae:	82e1a023          	sw	a4,-2016(gp) # 200000a0 <_edata>
    12b2:	400237b7          	lui	a5,0x40023
    12b6:	40078793          	addi	a5,a5,1024 # 40023400 <_eusrstack+0x2001e400>
    12ba:	fec45703          	lhu	a4,-20(s0)
    12be:	b39a                	sh	a4,32(a5)
    12c0:	400237b7          	lui	a5,0x40023
    12c4:	40078793          	addi	a5,a5,1024 # 40023400 <_eusrstack+0x2001e400>
    12c8:	33be                	lhu	a5,34(a5)
    12ca:	01079713          	slli	a4,a5,0x10
    12ce:	8341                	srli	a4,a4,0x10
    12d0:	400237b7          	lui	a5,0x40023
    12d4:	40078793          	addi	a5,a5,1024 # 40023400 <_eusrstack+0x2001e400>
    12d8:	04074713          	xori	a4,a4,64
    12dc:	0742                	slli	a4,a4,0x10
    12de:	8341                	srli	a4,a4,0x10
    12e0:	b3ba                	sh	a4,34(a5)
    12e2:	a091                	j	1326 <USBFS_IRQHandler+0x18e>
    12e4:	400237b7          	lui	a5,0x40023
    12e8:	40078793          	addi	a5,a5,1024 # 40023400 <_eusrstack+0x2001e400>
    12ec:	33bc                	lbu	a5,3(a5)
    12ee:	0ff7f793          	andi	a5,a5,255
    12f2:	07e2                	slli	a5,a5,0x18
    12f4:	87e1                	srai	a5,a5,0x18
    12f6:	f807f793          	andi	a5,a5,-128
    12fa:	01879713          	slli	a4,a5,0x18
    12fe:	8761                	srai	a4,a4,0x18
    1300:	82d1c783          	lbu	a5,-2003(gp) # 200000ad <USBFS_DevAddr>
    1304:	0ff7f793          	andi	a5,a5,255
    1308:	07e2                	slli	a5,a5,0x18
    130a:	87e1                	srai	a5,a5,0x18
    130c:	8fd9                	or	a5,a5,a4
    130e:	01879713          	slli	a4,a5,0x18
    1312:	8761                	srai	a4,a4,0x18
    1314:	400237b7          	lui	a5,0x40023
    1318:	40078793          	addi	a5,a5,1024 # 40023400 <_eusrstack+0x2001e400>
    131c:	0ff77713          	andi	a4,a4,255
    1320:	b3b8                	sb	a4,3(a5)
    1322:	a011                	j	1326 <USBFS_IRQHandler+0x18e>
    1324:	0001                	nop
    1326:	a0c1                	j	13e6 <USBFS_IRQHandler+0x24e>
    1328:	400237b7          	lui	a5,0x40023
    132c:	40078793          	addi	a5,a5,1024 # 40023400 <_eusrstack+0x2001e400>
    1330:	33fe                	lhu	a5,38(a5)
    1332:	01079713          	slli	a4,a5,0x10
    1336:	8341                	srli	a4,a4,0x10
    1338:	400237b7          	lui	a5,0x40023
    133c:	40078793          	addi	a5,a5,1024 # 40023400 <_eusrstack+0x2001e400>
    1340:	04074713          	xori	a4,a4,64
    1344:	0742                	slli	a4,a4,0x10
    1346:	8341                	srli	a4,a4,0x10
    1348:	b3fa                	sh	a4,38(a5)
    134a:	400237b7          	lui	a5,0x40023
    134e:	40078793          	addi	a5,a5,1024 # 40023400 <_eusrstack+0x2001e400>
    1352:	33fe                	lhu	a5,38(a5)
    1354:	07c2                	slli	a5,a5,0x10
    1356:	83c1                	srli	a5,a5,0x10
    1358:	07c2                	slli	a5,a5,0x10
    135a:	87c1                	srai	a5,a5,0x10
    135c:	9bf1                	andi	a5,a5,-4
    135e:	07c2                	slli	a5,a5,0x10
    1360:	87c1                	srai	a5,a5,0x10
    1362:	0027e793          	ori	a5,a5,2
    1366:	01079713          	slli	a4,a5,0x10
    136a:	8741                	srai	a4,a4,0x10
    136c:	400237b7          	lui	a5,0x40023
    1370:	40078793          	addi	a5,a5,1024 # 40023400 <_eusrstack+0x2001e400>
    1374:	0742                	slli	a4,a4,0x10
    1376:	8341                	srli	a4,a4,0x10
    1378:	b3fa                	sh	a4,38(a5)
    137a:	83018793          	addi	a5,gp,-2000 # 200000b0 <USBFS_Endp_Busy>
    137e:	000780a3          	sb	zero,1(a5)
    1382:	a09d                	j	13e8 <USBFS_IRQHandler+0x250>
    1384:	400237b7          	lui	a5,0x40023
    1388:	40078793          	addi	a5,a5,1024 # 40023400 <_eusrstack+0x2001e400>
    138c:	37fe                	lhu	a5,46(a5)
    138e:	01079713          	slli	a4,a5,0x10
    1392:	8341                	srli	a4,a4,0x10
    1394:	400237b7          	lui	a5,0x40023
    1398:	40078793          	addi	a5,a5,1024 # 40023400 <_eusrstack+0x2001e400>
    139c:	04074713          	xori	a4,a4,64
    13a0:	0742                	slli	a4,a4,0x10
    13a2:	8341                	srli	a4,a4,0x10
    13a4:	b7fa                	sh	a4,46(a5)
    13a6:	400237b7          	lui	a5,0x40023
    13aa:	40078793          	addi	a5,a5,1024 # 40023400 <_eusrstack+0x2001e400>
    13ae:	37fe                	lhu	a5,46(a5)
    13b0:	07c2                	slli	a5,a5,0x10
    13b2:	83c1                	srli	a5,a5,0x10
    13b4:	07c2                	slli	a5,a5,0x10
    13b6:	87c1                	srai	a5,a5,0x10
    13b8:	9bf1                	andi	a5,a5,-4
    13ba:	07c2                	slli	a5,a5,0x10
    13bc:	87c1                	srai	a5,a5,0x10
    13be:	0027e793          	ori	a5,a5,2
    13c2:	01079713          	slli	a4,a5,0x10
    13c6:	8741                	srai	a4,a4,0x10
    13c8:	400237b7          	lui	a5,0x40023
    13cc:	40078793          	addi	a5,a5,1024 # 40023400 <_eusrstack+0x2001e400>
    13d0:	0742                	slli	a4,a4,0x10
    13d2:	8341                	srli	a4,a4,0x10
    13d4:	b7fa                	sh	a4,46(a5)
    13d6:	83018793          	addi	a5,gp,-2000 # 200000b0 <USBFS_Endp_Busy>
    13da:	000781a3          	sb	zero,3(a5)
    13de:	a029                	j	13e8 <USBFS_IRQHandler+0x250>
    13e0:	0001                	nop
    13e2:	0cb0006f          	j	1cac <USBFS_IRQHandler+0xb14>
    13e6:	0001                	nop
    13e8:	0c50006f          	j	1cac <USBFS_IRQHandler+0xb14>
    13ec:	fe744783          	lbu	a5,-25(s0)
    13f0:	03f7f793          	andi	a5,a5,63
    13f4:	c789                	beqz	a5,13fe <USBFS_IRQHandler+0x266>
    13f6:	4709                	li	a4,2
    13f8:	04e78d63          	beq	a5,a4,1452 <USBFS_IRQHandler+0x2ba>
    13fc:	aaf9                	j	15da <USBFS_IRQHandler+0x442>
    13fe:	400237b7          	lui	a5,0x40023
    1402:	40078793          	addi	a5,a5,1024 # 40023400 <_eusrstack+0x2001e400>
    1406:	479c                	lw	a5,8(a5)
    1408:	fef41623          	sh	a5,-20(s0)
    140c:	fe744783          	lbu	a5,-25(s0)
    1410:	0407f793          	andi	a5,a5,64
    1414:	1a078f63          	beqz	a5,15d2 <USBFS_IRQHandler+0x43a>
    1418:	8251c783          	lbu	a5,-2011(gp) # 200000a5 <USBFS_SetupReqType>
    141c:	0ff7f793          	andi	a5,a5,255
    1420:	0607f793          	andi	a5,a5,96
    1424:	c399                	beqz	a5,142a <USBFS_IRQHandler+0x292>
    1426:	82019523          	sh	zero,-2006(gp) # 200000aa <USBFS_SetupReqLen>
    142a:	82a1d783          	lhu	a5,-2006(gp) # 200000aa <USBFS_SetupReqLen>
    142e:	07c2                	slli	a5,a5,0x10
    1430:	83c1                	srli	a5,a5,0x10
    1432:	1a079063          	bnez	a5,15d2 <USBFS_IRQHandler+0x43a>
    1436:	400237b7          	lui	a5,0x40023
    143a:	40078793          	addi	a5,a5,1024 # 40023400 <_eusrstack+0x2001e400>
    143e:	02079023          	sh	zero,32(a5)
    1442:	400237b7          	lui	a5,0x40023
    1446:	40078793          	addi	a5,a5,1024 # 40023400 <_eusrstack+0x2001e400>
    144a:	04000713          	li	a4,64
    144e:	b3ba                	sh	a4,34(a5)
    1450:	a249                	j	15d2 <USBFS_IRQHandler+0x43a>
    1452:	400237b7          	lui	a5,0x40023
    1456:	40078793          	addi	a5,a5,1024 # 40023400 <_eusrstack+0x2001e400>
    145a:	37be                	lhu	a5,42(a5)
    145c:	01079713          	slli	a4,a5,0x10
    1460:	8341                	srli	a4,a4,0x10
    1462:	400237b7          	lui	a5,0x40023
    1466:	40078793          	addi	a5,a5,1024 # 40023400 <_eusrstack+0x2001e400>
    146a:	08074713          	xori	a4,a4,128
    146e:	0742                	slli	a4,a4,0x10
    1470:	8341                	srli	a4,a4,0x10
    1472:	b7ba                	sh	a4,42(a5)
    1474:	400237b7          	lui	a5,0x40023
    1478:	40078793          	addi	a5,a5,1024 # 40023400 <_eusrstack+0x2001e400>
    147c:	479c                	lw	a5,8(a5)
    147e:	fef41523          	sh	a5,-22(s0)
    1482:	8421d783          	lhu	a5,-1982(gp) # 200000c2 <USB_Rx_LoadNum>
    1486:	07c2                	slli	a5,a5,0x10
    1488:	83c1                	srli	a5,a5,0x10
    148a:	873e                	mv	a4,a5
    148c:	0706                	slli	a4,a4,0x1
    148e:	51c18793          	addi	a5,gp,1308 # 20000d9c <USB_Rx_PackLen>
    1492:	97ba                	add	a5,a5,a4
    1494:	fea45703          	lhu	a4,-22(s0)
    1498:	a39a                	sh	a4,0(a5)
    149a:	fea45703          	lhu	a4,-22(s0)
    149e:	04000793          	li	a5,64
    14a2:	00e7f663          	bgeu	a5,a4,14ae <USBFS_IRQHandler+0x316>
    14a6:	04000793          	li	a5,64
    14aa:	fef41523          	sh	a5,-22(s0)
    14ae:	fea45783          	lhu	a5,-22(s0)
    14b2:	cfa1                	beqz	a5,150a <USBFS_IRQHandler+0x372>
    14b4:	fe0404a3          	sb	zero,-23(s0)
    14b8:	a81d                	j	14ee <USBFS_IRQHandler+0x356>
    14ba:	8421d783          	lhu	a5,-1982(gp) # 200000c2 <USB_Rx_LoadNum>
    14be:	07c2                	slli	a5,a5,0x10
    14c0:	83c1                	srli	a5,a5,0x10
    14c2:	00679713          	slli	a4,a5,0x6
    14c6:	fe944783          	lbu	a5,-23(s0)
    14ca:	973e                	add	a4,a4,a5
    14cc:	fe944683          	lbu	a3,-23(s0)
    14d0:	200007b7          	lui	a5,0x20000
    14d4:	19c78793          	addi	a5,a5,412 # 2000019c <USB_Rx_Buf>
    14d8:	97ba                	add	a5,a5,a4
    14da:	2398                	lbu	a4,0(a5)
    14dc:	53c18793          	addi	a5,gp,1340 # 20000dbc <usb_rx_b>
    14e0:	97b6                	add	a5,a5,a3
    14e2:	a398                	sb	a4,0(a5)
    14e4:	fe944783          	lbu	a5,-23(s0)
    14e8:	0785                	addi	a5,a5,1
    14ea:	fef404a3          	sb	a5,-23(s0)
    14ee:	fe944783          	lbu	a5,-23(s0)
    14f2:	07c2                	slli	a5,a5,0x10
    14f4:	83c1                	srli	a5,a5,0x10
    14f6:	fea45703          	lhu	a4,-22(s0)
    14fa:	fce7e0e3          	bltu	a5,a4,14ba <USBFS_IRQHandler+0x322>
    14fe:	fea45783          	lhu	a5,-22(s0)
    1502:	0ff7f713          	andi	a4,a5,255
    1506:	84e184a3          	sb	a4,-1975(gp) # 200000c9 <usb_rx_len>
    150a:	8421d783          	lhu	a5,-1982(gp) # 200000c2 <USB_Rx_LoadNum>
    150e:	07c2                	slli	a5,a5,0x10
    1510:	83c1                	srli	a5,a5,0x10
    1512:	0785                	addi	a5,a5,1
    1514:	01079713          	slli	a4,a5,0x10
    1518:	8341                	srli	a4,a4,0x10
    151a:	84e19123          	sh	a4,-1982(gp) # 200000c2 <USB_Rx_LoadNum>
    151e:	8421d783          	lhu	a5,-1982(gp) # 200000c2 <USB_Rx_LoadNum>
    1522:	07c2                	slli	a5,a5,0x10
    1524:	83c1                	srli	a5,a5,0x10
    1526:	00679713          	slli	a4,a5,0x6
    152a:	200007b7          	lui	a5,0x20000
    152e:	19c78793          	addi	a5,a5,412 # 2000019c <USB_Rx_Buf>
    1532:	973e                	add	a4,a4,a5
    1534:	400237b7          	lui	a5,0x40023
    1538:	40078793          	addi	a5,a5,1024 # 40023400 <_eusrstack+0x2001e400>
    153c:	cf98                	sw	a4,24(a5)
    153e:	8421d783          	lhu	a5,-1982(gp) # 200000c2 <USB_Rx_LoadNum>
    1542:	01079713          	slli	a4,a5,0x10
    1546:	8341                	srli	a4,a4,0x10
    1548:	47bd                	li	a5,15
    154a:	00e7fd63          	bgeu	a5,a4,1564 <USBFS_IRQHandler+0x3cc>
    154e:	84019123          	sh	zero,-1982(gp) # 200000c2 <USB_Rx_LoadNum>
    1552:	400237b7          	lui	a5,0x40023
    1556:	40078793          	addi	a5,a5,1024 # 40023400 <_eusrstack+0x2001e400>
    155a:	20000737          	lui	a4,0x20000
    155e:	19c70713          	addi	a4,a4,412 # 2000019c <USB_Rx_Buf>
    1562:	cf98                	sw	a4,24(a5)
    1564:	8441d783          	lhu	a5,-1980(gp) # 200000c4 <USB_Rx_DealNum>
    1568:	07c2                	slli	a5,a5,0x10
    156a:	83c1                	srli	a5,a5,0x10
    156c:	0785                	addi	a5,a5,1
    156e:	01079713          	slli	a4,a5,0x10
    1572:	8341                	srli	a4,a4,0x10
    1574:	84e19223          	sh	a4,-1980(gp) # 200000c4 <USB_Rx_DealNum>
    1578:	8461d783          	lhu	a5,-1978(gp) # 200000c6 <USB_Rx_RemainNum>
    157c:	01079713          	slli	a4,a5,0x10
    1580:	8341                	srli	a4,a4,0x10
    1582:	47b5                	li	a5,13
    1584:	04e7fa63          	bgeu	a5,a4,15d8 <USBFS_IRQHandler+0x440>
    1588:	400237b7          	lui	a5,0x40023
    158c:	40078793          	addi	a5,a5,1024 # 40023400 <_eusrstack+0x2001e400>
    1590:	37be                	lhu	a5,42(a5)
    1592:	01079713          	slli	a4,a5,0x10
    1596:	8341                	srli	a4,a4,0x10
    1598:	400237b7          	lui	a5,0x40023
    159c:	40078793          	addi	a5,a5,1024 # 40023400 <_eusrstack+0x2001e400>
    15a0:	9b4d                	andi	a4,a4,-13
    15a2:	0742                	slli	a4,a4,0x10
    15a4:	8341                	srli	a4,a4,0x10
    15a6:	b7ba                	sh	a4,42(a5)
    15a8:	400237b7          	lui	a5,0x40023
    15ac:	40078793          	addi	a5,a5,1024 # 40023400 <_eusrstack+0x2001e400>
    15b0:	37be                	lhu	a5,42(a5)
    15b2:	01079713          	slli	a4,a5,0x10
    15b6:	8341                	srli	a4,a4,0x10
    15b8:	400237b7          	lui	a5,0x40023
    15bc:	40078793          	addi	a5,a5,1024 # 40023400 <_eusrstack+0x2001e400>
    15c0:	00876713          	ori	a4,a4,8
    15c4:	0742                	slli	a4,a4,0x10
    15c6:	8341                	srli	a4,a4,0x10
    15c8:	b7ba                	sh	a4,42(a5)
    15ca:	4705                	li	a4,1
    15cc:	84e18423          	sb	a4,-1976(gp) # 200000c8 <USB_Down_StopFlag>
    15d0:	a021                	j	15d8 <USBFS_IRQHandler+0x440>
    15d2:	0001                	nop
    15d4:	6d80006f          	j	1cac <USBFS_IRQHandler+0xb14>
    15d8:	0001                	nop
    15da:	6d20006f          	j	1cac <USBFS_IRQHandler+0xb14>
    15de:	400237b7          	lui	a5,0x40023
    15e2:	40078793          	addi	a5,a5,1024 # 40023400 <_eusrstack+0x2001e400>
    15e6:	0ca00713          	li	a4,202
    15ea:	b3ba                	sh	a4,34(a5)
    15ec:	85c18793          	addi	a5,gp,-1956 # 200000dc <USBFS_EP0_4Buf>
    15f0:	2398                	lbu	a4,0(a5)
    15f2:	82e182a3          	sb	a4,-2011(gp) # 200000a5 <USBFS_SetupReqType>
    15f6:	85c18793          	addi	a5,gp,-1956 # 200000dc <USBFS_EP0_4Buf>
    15fa:	3398                	lbu	a4,1(a5)
    15fc:	82e18223          	sb	a4,-2012(gp) # 200000a4 <USBFS_SetupReqCode>
    1600:	85c18793          	addi	a5,gp,-1956 # 200000dc <USBFS_EP0_4Buf>
    1604:	23f8                	lbu	a4,6(a5)
    1606:	33fc                	lbu	a5,7(a5)
    1608:	07a2                	slli	a5,a5,0x8
    160a:	8fd9                	or	a5,a5,a4
    160c:	01079713          	slli	a4,a5,0x10
    1610:	8341                	srli	a4,a4,0x10
    1612:	82e19523          	sh	a4,-2006(gp) # 200000aa <USBFS_SetupReqLen>
    1616:	85c18793          	addi	a5,gp,-1956 # 200000dc <USBFS_EP0_4Buf>
    161a:	23b8                	lbu	a4,2(a5)
    161c:	33bc                	lbu	a5,3(a5)
    161e:	07a2                	slli	a5,a5,0x8
    1620:	8fd9                	or	a5,a5,a4
    1622:	01079713          	slli	a4,a5,0x10
    1626:	8341                	srli	a4,a4,0x10
    1628:	82e19323          	sh	a4,-2010(gp) # 200000a6 <USBFS_SetupReqValue>
    162c:	85c18793          	addi	a5,gp,-1956 # 200000dc <USBFS_EP0_4Buf>
    1630:	23d8                	lbu	a4,4(a5)
    1632:	33dc                	lbu	a5,5(a5)
    1634:	07a2                	slli	a5,a5,0x8
    1636:	8fd9                	or	a5,a5,a4
    1638:	01079713          	slli	a4,a5,0x10
    163c:	8341                	srli	a4,a4,0x10
    163e:	82e19423          	sh	a4,-2008(gp) # 200000a8 <USBFS_SetupReqIndex>
    1642:	fe041623          	sh	zero,-20(s0)
    1646:	fe0407a3          	sb	zero,-17(s0)
    164a:	8251c783          	lbu	a5,-2011(gp) # 200000a5 <USBFS_SetupReqType>
    164e:	0ff7f793          	andi	a5,a5,255
    1652:	0607f793          	andi	a5,a5,96
    1656:	c3f9                	beqz	a5,171c <USBFS_IRQHandler+0x584>
    1658:	8251c783          	lbu	a5,-2011(gp) # 200000a5 <USBFS_SetupReqType>
    165c:	0ff7f793          	andi	a5,a5,255
    1660:	0207f793          	andi	a5,a5,32
    1664:	cba1                	beqz	a5,16b4 <USBFS_IRQHandler+0x51c>
    1666:	8241c783          	lbu	a5,-2012(gp) # 200000a4 <USBFS_SetupReqCode>
    166a:	0ff7f793          	andi	a5,a5,255
    166e:	02100713          	li	a4,33
    1672:	02e78463          	beq	a5,a4,169a <USBFS_IRQHandler+0x502>
    1676:	02100713          	li	a4,33
    167a:	00f74763          	blt	a4,a5,1688 <USBFS_IRQHandler+0x4f0>
    167e:	02000713          	li	a4,32
    1682:	04e78463          	beq	a5,a4,16ca <USBFS_IRQHandler+0x532>
    1686:	a015                	j	16aa <USBFS_IRQHandler+0x512>
    1688:	02200713          	li	a4,34
    168c:	04e78163          	beq	a5,a4,16ce <USBFS_IRQHandler+0x536>
    1690:	02300713          	li	a4,35
    1694:	02e78f63          	beq	a5,a4,16d2 <USBFS_IRQHandler+0x53a>
    1698:	a809                	j	16aa <USBFS_IRQHandler+0x512>
    169a:	83818713          	addi	a4,gp,-1992 # 200000b8 <Com_Cfg>
    169e:	82e1a023          	sw	a4,-2016(gp) # 200000a0 <_edata>
    16a2:	479d                	li	a5,7
    16a4:	fef41623          	sh	a5,-20(s0)
    16a8:	a035                	j	16d4 <USBFS_IRQHandler+0x53c>
    16aa:	57fd                	li	a5,-1
    16ac:	fef407a3          	sb	a5,-17(s0)
    16b0:	0001                	nop
    16b2:	a00d                	j	16d4 <USBFS_IRQHandler+0x53c>
    16b4:	8251c783          	lbu	a5,-2011(gp) # 200000a5 <USBFS_SetupReqType>
    16b8:	0ff7f793          	andi	a5,a5,255
    16bc:	0407f793          	andi	a5,a5,64
    16c0:	eb91                	bnez	a5,16d4 <USBFS_IRQHandler+0x53c>
    16c2:	57fd                	li	a5,-1
    16c4:	fef407a3          	sb	a5,-17(s0)
    16c8:	a031                	j	16d4 <USBFS_IRQHandler+0x53c>
    16ca:	0001                	nop
    16cc:	a021                	j	16d4 <USBFS_IRQHandler+0x53c>
    16ce:	0001                	nop
    16d0:	a011                	j	16d4 <USBFS_IRQHandler+0x53c>
    16d2:	0001                	nop
    16d4:	82a1d783          	lhu	a5,-2006(gp) # 200000aa <USBFS_SetupReqLen>
    16d8:	01079713          	slli	a4,a5,0x10
    16dc:	8341                	srli	a4,a4,0x10
    16de:	03f00793          	li	a5,63
    16e2:	00e7e763          	bltu	a5,a4,16f0 <USBFS_IRQHandler+0x558>
    16e6:	82a1d783          	lhu	a5,-2006(gp) # 200000aa <USBFS_SetupReqLen>
    16ea:	07c2                	slli	a5,a5,0x10
    16ec:	83c1                	srli	a5,a5,0x10
    16ee:	a019                	j	16f4 <USBFS_IRQHandler+0x55c>
    16f0:	04000793          	li	a5,64
    16f4:	fef41623          	sh	a5,-20(s0)
    16f8:	8201a783          	lw	a5,-2016(gp) # 200000a0 <_edata>
    16fc:	fec45703          	lhu	a4,-20(s0)
    1700:	863a                	mv	a2,a4
    1702:	85be                	mv	a1,a5
    1704:	85c18513          	addi	a0,gp,-1956 # 200000dc <USBFS_EP0_4Buf>
    1708:	7ba010ef          	jal	ra,2ec2 <memcpy>
    170c:	8201a703          	lw	a4,-2016(gp) # 200000a0 <_edata>
    1710:	fec45783          	lhu	a5,-20(s0)
    1714:	973e                	add	a4,a4,a5
    1716:	82e1a023          	sw	a4,-2016(gp) # 200000a0 <_edata>
    171a:	a9c1                	j	1bea <USBFS_IRQHandler+0xa52>
    171c:	8241c783          	lbu	a5,-2012(gp) # 200000a4 <USBFS_SetupReqCode>
    1720:	0ff7f793          	andi	a5,a5,255
    1724:	472d                	li	a4,11
    1726:	4af76563          	bltu	a4,a5,1bd0 <USBFS_IRQHandler+0xa38>
    172a:	00279713          	slli	a4,a5,0x2
    172e:	6791                	lui	a5,0x4
    1730:	39878793          	addi	a5,a5,920 # 4398 <CRC16_Table+0x200>
    1734:	97ba                	add	a5,a5,a4
    1736:	439c                	lw	a5,0(a5)
    1738:	8782                	jr	a5
    173a:	8261d783          	lhu	a5,-2010(gp) # 200000a6 <USBFS_SetupReqValue>
    173e:	07c2                	slli	a5,a5,0x10
    1740:	83c1                	srli	a5,a5,0x10
    1742:	83a1                	srli	a5,a5,0x8
    1744:	07c2                	slli	a5,a5,0x10
    1746:	83c1                	srli	a5,a5,0x10
    1748:	0ff7f793          	andi	a5,a5,255
    174c:	4709                	li	a4,2
    174e:	02e78363          	beq	a5,a4,1774 <USBFS_IRQHandler+0x5dc>
    1752:	470d                	li	a4,3
    1754:	04e78963          	beq	a5,a4,17a6 <USBFS_IRQHandler+0x60e>
    1758:	4705                	li	a4,1
    175a:	0ce79a63          	bne	a5,a4,182e <USBFS_IRQHandler+0x696>
    175e:	6711                	lui	a4,0x4
    1760:	3c870713          	addi	a4,a4,968 # 43c8 <MyDevDescr>
    1764:	82e1a023          	sw	a4,-2016(gp) # 200000a0 <_edata>
    1768:	6791                	lui	a5,0x4
    176a:	3c87c783          	lbu	a5,968(a5) # 43c8 <MyDevDescr>
    176e:	fef41623          	sh	a5,-20(s0)
    1772:	a0d1                	j	1836 <USBFS_IRQHandler+0x69e>
    1774:	6711                	lui	a4,0x4
    1776:	3dc70713          	addi	a4,a4,988 # 43dc <MyCfgDescr>
    177a:	82e1a023          	sw	a4,-2016(gp) # 200000a0 <_edata>
    177e:	6791                	lui	a5,0x4
    1780:	3dc78793          	addi	a5,a5,988 # 43dc <MyCfgDescr>
    1784:	23bc                	lbu	a5,2(a5)
    1786:	01079713          	slli	a4,a5,0x10
    178a:	8341                	srli	a4,a4,0x10
    178c:	6791                	lui	a5,0x4
    178e:	3dc78793          	addi	a5,a5,988 # 43dc <MyCfgDescr>
    1792:	33bc                	lbu	a5,3(a5)
    1794:	07c2                	slli	a5,a5,0x10
    1796:	83c1                	srli	a5,a5,0x10
    1798:	07a2                	slli	a5,a5,0x8
    179a:	07c2                	slli	a5,a5,0x10
    179c:	83c1                	srli	a5,a5,0x10
    179e:	97ba                	add	a5,a5,a4
    17a0:	fef41623          	sh	a5,-20(s0)
    17a4:	a849                	j	1836 <USBFS_IRQHandler+0x69e>
    17a6:	8261d783          	lhu	a5,-2010(gp) # 200000a6 <USBFS_SetupReqValue>
    17aa:	07c2                	slli	a5,a5,0x10
    17ac:	83c1                	srli	a5,a5,0x10
    17ae:	0ff7f793          	andi	a5,a5,255
    17b2:	4705                	li	a4,1
    17b4:	02e78763          	beq	a5,a4,17e2 <USBFS_IRQHandler+0x64a>
    17b8:	4705                	li	a4,1
    17ba:	00f74463          	blt	a4,a5,17c2 <USBFS_IRQHandler+0x62a>
    17be:	cb89                	beqz	a5,17d0 <USBFS_IRQHandler+0x638>
    17c0:	a095                	j	1824 <USBFS_IRQHandler+0x68c>
    17c2:	4709                	li	a4,2
    17c4:	02e78a63          	beq	a5,a4,17f8 <USBFS_IRQHandler+0x660>
    17c8:	470d                	li	a4,3
    17ca:	04e78263          	beq	a5,a4,180e <USBFS_IRQHandler+0x676>
    17ce:	a899                	j	1824 <USBFS_IRQHandler+0x68c>
    17d0:	81818713          	addi	a4,gp,-2024 # 20000098 <MyLangDescr>
    17d4:	82e1a023          	sw	a4,-2016(gp) # 200000a0 <_edata>
    17d8:	8181c783          	lbu	a5,-2024(gp) # 20000098 <MyLangDescr>
    17dc:	fef41623          	sh	a5,-20(s0)
    17e0:	a0b1                	j	182c <USBFS_IRQHandler+0x694>
    17e2:	6711                	lui	a4,0x4
    17e4:	42070713          	addi	a4,a4,1056 # 4420 <MyManuInfo>
    17e8:	82e1a023          	sw	a4,-2016(gp) # 200000a0 <_edata>
    17ec:	6791                	lui	a5,0x4
    17ee:	4207c783          	lbu	a5,1056(a5) # 4420 <MyManuInfo>
    17f2:	fef41623          	sh	a5,-20(s0)
    17f6:	a81d                	j	182c <USBFS_IRQHandler+0x694>
    17f8:	6711                	lui	a4,0x4
    17fa:	43070713          	addi	a4,a4,1072 # 4430 <MyProdInfo>
    17fe:	82e1a023          	sw	a4,-2016(gp) # 200000a0 <_edata>
    1802:	6791                	lui	a5,0x4
    1804:	4307c783          	lbu	a5,1072(a5) # 4430 <MyProdInfo>
    1808:	fef41623          	sh	a5,-20(s0)
    180c:	a005                	j	182c <USBFS_IRQHandler+0x694>
    180e:	6711                	lui	a4,0x4
    1810:	44870713          	addi	a4,a4,1096 # 4448 <MySerNumInfo>
    1814:	82e1a023          	sw	a4,-2016(gp) # 200000a0 <_edata>
    1818:	6791                	lui	a5,0x4
    181a:	4487c783          	lbu	a5,1096(a5) # 4448 <MySerNumInfo>
    181e:	fef41623          	sh	a5,-20(s0)
    1822:	a029                	j	182c <USBFS_IRQHandler+0x694>
    1824:	57fd                	li	a5,-1
    1826:	fef407a3          	sb	a5,-17(s0)
    182a:	0001                	nop
    182c:	a029                	j	1836 <USBFS_IRQHandler+0x69e>
    182e:	57fd                	li	a5,-1
    1830:	fef407a3          	sb	a5,-17(s0)
    1834:	0001                	nop
    1836:	82a1d783          	lhu	a5,-2006(gp) # 200000aa <USBFS_SetupReqLen>
    183a:	07c2                	slli	a5,a5,0x10
    183c:	83c1                	srli	a5,a5,0x10
    183e:	fec45703          	lhu	a4,-20(s0)
    1842:	00f77663          	bgeu	a4,a5,184e <USBFS_IRQHandler+0x6b6>
    1846:	fec45703          	lhu	a4,-20(s0)
    184a:	82e19523          	sh	a4,-2006(gp) # 200000aa <USBFS_SetupReqLen>
    184e:	82a1d783          	lhu	a5,-2006(gp) # 200000aa <USBFS_SetupReqLen>
    1852:	01079713          	slli	a4,a5,0x10
    1856:	8341                	srli	a4,a4,0x10
    1858:	03f00793          	li	a5,63
    185c:	00e7e763          	bltu	a5,a4,186a <USBFS_IRQHandler+0x6d2>
    1860:	82a1d783          	lhu	a5,-2006(gp) # 200000aa <USBFS_SetupReqLen>
    1864:	07c2                	slli	a5,a5,0x10
    1866:	83c1                	srli	a5,a5,0x10
    1868:	a019                	j	186e <USBFS_IRQHandler+0x6d6>
    186a:	04000793          	li	a5,64
    186e:	fef41623          	sh	a5,-20(s0)
    1872:	8201a783          	lw	a5,-2016(gp) # 200000a0 <_edata>
    1876:	fec45703          	lhu	a4,-20(s0)
    187a:	863a                	mv	a2,a4
    187c:	85be                	mv	a1,a5
    187e:	85c18513          	addi	a0,gp,-1956 # 200000dc <USBFS_EP0_4Buf>
    1882:	640010ef          	jal	ra,2ec2 <memcpy>
    1886:	8201a703          	lw	a4,-2016(gp) # 200000a0 <_edata>
    188a:	fec45783          	lhu	a5,-20(s0)
    188e:	973e                	add	a4,a4,a5
    1890:	82e1a023          	sw	a4,-2016(gp) # 200000a0 <_edata>
    1894:	ae99                	j	1bea <USBFS_IRQHandler+0xa52>
    1896:	8261d783          	lhu	a5,-2010(gp) # 200000a6 <USBFS_SetupReqValue>
    189a:	07c2                	slli	a5,a5,0x10
    189c:	83c1                	srli	a5,a5,0x10
    189e:	0ff7f713          	andi	a4,a5,255
    18a2:	82e186a3          	sb	a4,-2003(gp) # 200000ad <USBFS_DevAddr>
    18a6:	a691                	j	1bea <USBFS_IRQHandler+0xa52>
    18a8:	82c1c783          	lbu	a5,-2004(gp) # 200000ac <USBFS_DevConfig>
    18ac:	0ff7f713          	andi	a4,a5,255
    18b0:	84e18e23          	sb	a4,-1956(gp) # 200000dc <USBFS_EP0_4Buf>
    18b4:	82a1d783          	lhu	a5,-2006(gp) # 200000aa <USBFS_SetupReqLen>
    18b8:	01079713          	slli	a4,a5,0x10
    18bc:	8341                	srli	a4,a4,0x10
    18be:	4785                	li	a5,1
    18c0:	30e7fe63          	bgeu	a5,a4,1bdc <USBFS_IRQHandler+0xa44>
    18c4:	4705                	li	a4,1
    18c6:	82e19523          	sh	a4,-2006(gp) # 200000aa <USBFS_SetupReqLen>
    18ca:	ae09                	j	1bdc <USBFS_IRQHandler+0xa44>
    18cc:	8261d783          	lhu	a5,-2010(gp) # 200000a6 <USBFS_SetupReqValue>
    18d0:	07c2                	slli	a5,a5,0x10
    18d2:	83c1                	srli	a5,a5,0x10
    18d4:	0ff7f713          	andi	a4,a5,255
    18d8:	82e18623          	sb	a4,-2004(gp) # 200000ac <USBFS_DevConfig>
    18dc:	4705                	li	a4,1
    18de:	82e187a3          	sb	a4,-2001(gp) # 200000af <USBFS_DevEnumStatus>
    18e2:	a621                	j	1bea <USBFS_IRQHandler+0xa52>
    18e4:	8251c783          	lbu	a5,-2011(gp) # 200000a5 <USBFS_SetupReqType>
    18e8:	0ff7f793          	andi	a5,a5,255
    18ec:	8bfd                	andi	a5,a5,31
    18ee:	e785                	bnez	a5,1916 <USBFS_IRQHandler+0x77e>
    18f0:	8261d783          	lhu	a5,-2010(gp) # 200000a6 <USBFS_SetupReqValue>
    18f4:	07c2                	slli	a5,a5,0x10
    18f6:	83c1                	srli	a5,a5,0x10
    18f8:	0ff7f713          	andi	a4,a5,255
    18fc:	4785                	li	a5,1
    18fe:	2ef71163          	bne	a4,a5,1be0 <USBFS_IRQHandler+0xa48>
    1902:	82e1c783          	lbu	a5,-2002(gp) # 200000ae <USBFS_DevSleepStatus>
    1906:	0ff7f793          	andi	a5,a5,255
    190a:	9bf9                	andi	a5,a5,-2
    190c:	0ff7f713          	andi	a4,a5,255
    1910:	82e18723          	sb	a4,-2002(gp) # 200000ae <USBFS_DevSleepStatus>
    1914:	a4f1                	j	1be0 <USBFS_IRQHandler+0xa48>
    1916:	8251c783          	lbu	a5,-2011(gp) # 200000a5 <USBFS_SetupReqType>
    191a:	0ff7f793          	andi	a5,a5,255
    191e:	01f7f713          	andi	a4,a5,31
    1922:	4789                	li	a5,2
    1924:	06f71963          	bne	a4,a5,1996 <USBFS_IRQHandler+0x7fe>
    1928:	8261d783          	lhu	a5,-2010(gp) # 200000a6 <USBFS_SetupReqValue>
    192c:	07c2                	slli	a5,a5,0x10
    192e:	83c1                	srli	a5,a5,0x10
    1930:	0ff7f793          	andi	a5,a5,255
    1934:	efa9                	bnez	a5,198e <USBFS_IRQHandler+0x7f6>
    1936:	8281d783          	lhu	a5,-2008(gp) # 200000a8 <USBFS_SetupReqIndex>
    193a:	07c2                	slli	a5,a5,0x10
    193c:	83c1                	srli	a5,a5,0x10
    193e:	0ff7f793          	andi	a5,a5,255
    1942:	08100713          	li	a4,129
    1946:	00e78a63          	beq	a5,a4,195a <USBFS_IRQHandler+0x7c2>
    194a:	08300713          	li	a4,131
    194e:	02e78463          	beq	a5,a4,1976 <USBFS_IRQHandler+0x7de>
    1952:	4709                	li	a4,2
    1954:	00e78a63          	beq	a5,a4,1968 <USBFS_IRQHandler+0x7d0>
    1958:	a035                	j	1984 <USBFS_IRQHandler+0x7ec>
    195a:	400237b7          	lui	a5,0x40023
    195e:	40078793          	addi	a5,a5,1024 # 40023400 <_eusrstack+0x2001e400>
    1962:	4709                	li	a4,2
    1964:	b3fa                	sh	a4,38(a5)
    1966:	a825                	j	199e <USBFS_IRQHandler+0x806>
    1968:	400237b7          	lui	a5,0x40023
    196c:	40078793          	addi	a5,a5,1024 # 40023400 <_eusrstack+0x2001e400>
    1970:	02079523          	sh	zero,42(a5)
    1974:	a02d                	j	199e <USBFS_IRQHandler+0x806>
    1976:	400237b7          	lui	a5,0x40023
    197a:	40078793          	addi	a5,a5,1024 # 40023400 <_eusrstack+0x2001e400>
    197e:	4709                	li	a4,2
    1980:	b7fa                	sh	a4,46(a5)
    1982:	a831                	j	199e <USBFS_IRQHandler+0x806>
    1984:	57fd                	li	a5,-1
    1986:	fef407a3          	sb	a5,-17(s0)
    198a:	0001                	nop
    198c:	a809                	j	199e <USBFS_IRQHandler+0x806>
    198e:	57fd                	li	a5,-1
    1990:	fef407a3          	sb	a5,-17(s0)
    1994:	a4b1                	j	1be0 <USBFS_IRQHandler+0xa48>
    1996:	57fd                	li	a5,-1
    1998:	fef407a3          	sb	a5,-17(s0)
    199c:	a491                	j	1be0 <USBFS_IRQHandler+0xa48>
    199e:	a489                	j	1be0 <USBFS_IRQHandler+0xa48>
    19a0:	8251c783          	lbu	a5,-2011(gp) # 200000a5 <USBFS_SetupReqType>
    19a4:	0ff7f793          	andi	a5,a5,255
    19a8:	8bfd                	andi	a5,a5,31
    19aa:	e7a1                	bnez	a5,19f2 <USBFS_IRQHandler+0x85a>
    19ac:	8261d783          	lhu	a5,-2010(gp) # 200000a6 <USBFS_SetupReqValue>
    19b0:	07c2                	slli	a5,a5,0x10
    19b2:	83c1                	srli	a5,a5,0x10
    19b4:	0ff7f713          	andi	a4,a5,255
    19b8:	4785                	li	a5,1
    19ba:	02f71863          	bne	a4,a5,19ea <USBFS_IRQHandler+0x852>
    19be:	6791                	lui	a5,0x4
    19c0:	3dc78793          	addi	a5,a5,988 # 43dc <MyCfgDescr>
    19c4:	33fc                	lbu	a5,7(a5)
    19c6:	0207f793          	andi	a5,a5,32
    19ca:	cf81                	beqz	a5,19e2 <USBFS_IRQHandler+0x84a>
    19cc:	82e1c783          	lbu	a5,-2002(gp) # 200000ae <USBFS_DevSleepStatus>
    19d0:	0ff7f793          	andi	a5,a5,255
    19d4:	0017e793          	ori	a5,a5,1
    19d8:	0ff7f713          	andi	a4,a5,255
    19dc:	82e18723          	sb	a4,-2002(gp) # 200000ae <USBFS_DevSleepStatus>
    19e0:	a429                	j	1bea <USBFS_IRQHandler+0xa52>
    19e2:	57fd                	li	a5,-1
    19e4:	fef407a3          	sb	a5,-17(s0)
    19e8:	a409                	j	1bea <USBFS_IRQHandler+0xa52>
    19ea:	57fd                	li	a5,-1
    19ec:	fef407a3          	sb	a5,-17(s0)
    19f0:	aaed                	j	1bea <USBFS_IRQHandler+0xa52>
    19f2:	8251c783          	lbu	a5,-2011(gp) # 200000a5 <USBFS_SetupReqType>
    19f6:	0ff7f793          	andi	a5,a5,255
    19fa:	01f7f713          	andi	a4,a5,31
    19fe:	4789                	li	a5,2
    1a00:	0af71a63          	bne	a4,a5,1ab4 <USBFS_IRQHandler+0x91c>
    1a04:	8261d783          	lhu	a5,-2010(gp) # 200000a6 <USBFS_SetupReqValue>
    1a08:	07c2                	slli	a5,a5,0x10
    1a0a:	83c1                	srli	a5,a5,0x10
    1a0c:	0ff7f793          	andi	a5,a5,255
    1a10:	efd1                	bnez	a5,1aac <USBFS_IRQHandler+0x914>
    1a12:	8281d783          	lhu	a5,-2008(gp) # 200000a8 <USBFS_SetupReqIndex>
    1a16:	07c2                	slli	a5,a5,0x10
    1a18:	83c1                	srli	a5,a5,0x10
    1a1a:	0ff7f793          	andi	a5,a5,255
    1a1e:	08100713          	li	a4,129
    1a22:	00e78a63          	beq	a5,a4,1a36 <USBFS_IRQHandler+0x89e>
    1a26:	08300713          	li	a4,131
    1a2a:	04e78a63          	beq	a5,a4,1a7e <USBFS_IRQHandler+0x8e6>
    1a2e:	4709                	li	a4,2
    1a30:	02e78563          	beq	a5,a4,1a5a <USBFS_IRQHandler+0x8c2>
    1a34:	a0bd                	j	1aa2 <USBFS_IRQHandler+0x90a>
    1a36:	400237b7          	lui	a5,0x40023
    1a3a:	40078793          	addi	a5,a5,1024 # 40023400 <_eusrstack+0x2001e400>
    1a3e:	33fe                	lhu	a5,38(a5)
    1a40:	01079713          	slli	a4,a5,0x10
    1a44:	8341                	srli	a4,a4,0x10
    1a46:	400237b7          	lui	a5,0x40023
    1a4a:	40078793          	addi	a5,a5,1024 # 40023400 <_eusrstack+0x2001e400>
    1a4e:	00376713          	ori	a4,a4,3
    1a52:	0742                	slli	a4,a4,0x10
    1a54:	8341                	srli	a4,a4,0x10
    1a56:	b3fa                	sh	a4,38(a5)
    1a58:	a095                	j	1abc <USBFS_IRQHandler+0x924>
    1a5a:	400237b7          	lui	a5,0x40023
    1a5e:	40078793          	addi	a5,a5,1024 # 40023400 <_eusrstack+0x2001e400>
    1a62:	37be                	lhu	a5,42(a5)
    1a64:	01079713          	slli	a4,a5,0x10
    1a68:	8341                	srli	a4,a4,0x10
    1a6a:	400237b7          	lui	a5,0x40023
    1a6e:	40078793          	addi	a5,a5,1024 # 40023400 <_eusrstack+0x2001e400>
    1a72:	00c76713          	ori	a4,a4,12
    1a76:	0742                	slli	a4,a4,0x10
    1a78:	8341                	srli	a4,a4,0x10
    1a7a:	b7ba                	sh	a4,42(a5)
    1a7c:	a081                	j	1abc <USBFS_IRQHandler+0x924>
    1a7e:	400237b7          	lui	a5,0x40023
    1a82:	40078793          	addi	a5,a5,1024 # 40023400 <_eusrstack+0x2001e400>
    1a86:	37fe                	lhu	a5,46(a5)
    1a88:	01079713          	slli	a4,a5,0x10
    1a8c:	8341                	srli	a4,a4,0x10
    1a8e:	400237b7          	lui	a5,0x40023
    1a92:	40078793          	addi	a5,a5,1024 # 40023400 <_eusrstack+0x2001e400>
    1a96:	00376713          	ori	a4,a4,3
    1a9a:	0742                	slli	a4,a4,0x10
    1a9c:	8341                	srli	a4,a4,0x10
    1a9e:	b7fa                	sh	a4,46(a5)
    1aa0:	a831                	j	1abc <USBFS_IRQHandler+0x924>
    1aa2:	57fd                	li	a5,-1
    1aa4:	fef407a3          	sb	a5,-17(s0)
    1aa8:	0001                	nop
    1aaa:	a809                	j	1abc <USBFS_IRQHandler+0x924>
    1aac:	57fd                	li	a5,-1
    1aae:	fef407a3          	sb	a5,-17(s0)
    1ab2:	aa25                	j	1bea <USBFS_IRQHandler+0xa52>
    1ab4:	57fd                	li	a5,-1
    1ab6:	fef407a3          	sb	a5,-17(s0)
    1aba:	aa05                	j	1bea <USBFS_IRQHandler+0xa52>
    1abc:	a23d                	j	1bea <USBFS_IRQHandler+0xa52>
    1abe:	84018e23          	sb	zero,-1956(gp) # 200000dc <USBFS_EP0_4Buf>
    1ac2:	82a1d783          	lhu	a5,-2006(gp) # 200000aa <USBFS_SetupReqLen>
    1ac6:	01079713          	slli	a4,a5,0x10
    1aca:	8341                	srli	a4,a4,0x10
    1acc:	4785                	li	a5,1
    1ace:	10e7fb63          	bgeu	a5,a4,1be4 <USBFS_IRQHandler+0xa4c>
    1ad2:	4705                	li	a4,1
    1ad4:	82e19523          	sh	a4,-2006(gp) # 200000aa <USBFS_SetupReqLen>
    1ad8:	a231                	j	1be4 <USBFS_IRQHandler+0xa4c>
    1ada:	84018e23          	sb	zero,-1956(gp) # 200000dc <USBFS_EP0_4Buf>
    1ade:	85c18793          	addi	a5,gp,-1956 # 200000dc <USBFS_EP0_4Buf>
    1ae2:	000780a3          	sb	zero,1(a5)
    1ae6:	8251c783          	lbu	a5,-2011(gp) # 200000a5 <USBFS_SetupReqType>
    1aea:	0ff7f793          	andi	a5,a5,255
    1aee:	8bfd                	andi	a5,a5,31
    1af0:	eb99                	bnez	a5,1b06 <USBFS_IRQHandler+0x96e>
    1af2:	82e1c783          	lbu	a5,-2002(gp) # 200000ae <USBFS_DevSleepStatus>
    1af6:	0ff7f793          	andi	a5,a5,255
    1afa:	8b85                	andi	a5,a5,1
    1afc:	cfd5                	beqz	a5,1bb8 <USBFS_IRQHandler+0xa20>
    1afe:	4709                	li	a4,2
    1b00:	84e18e23          	sb	a4,-1956(gp) # 200000dc <USBFS_EP0_4Buf>
    1b04:	a855                	j	1bb8 <USBFS_IRQHandler+0xa20>
    1b06:	8251c783          	lbu	a5,-2011(gp) # 200000a5 <USBFS_SetupReqType>
    1b0a:	0ff7f793          	andi	a5,a5,255
    1b0e:	01f7f713          	andi	a4,a5,31
    1b12:	4789                	li	a5,2
    1b14:	08f71963          	bne	a4,a5,1ba6 <USBFS_IRQHandler+0xa0e>
    1b18:	8281d783          	lhu	a5,-2008(gp) # 200000a8 <USBFS_SetupReqIndex>
    1b1c:	07c2                	slli	a5,a5,0x10
    1b1e:	83c1                	srli	a5,a5,0x10
    1b20:	0ff7f793          	andi	a5,a5,255
    1b24:	08100713          	li	a4,129
    1b28:	00e78a63          	beq	a5,a4,1b3c <USBFS_IRQHandler+0x9a4>
    1b2c:	08300713          	li	a4,131
    1b30:	04e78663          	beq	a5,a4,1b7c <USBFS_IRQHandler+0x9e4>
    1b34:	4709                	li	a4,2
    1b36:	02e78363          	beq	a5,a4,1b5c <USBFS_IRQHandler+0x9c4>
    1b3a:	a08d                	j	1b9c <USBFS_IRQHandler+0xa04>
    1b3c:	400237b7          	lui	a5,0x40023
    1b40:	40078793          	addi	a5,a5,1024 # 40023400 <_eusrstack+0x2001e400>
    1b44:	33fe                	lhu	a5,38(a5)
    1b46:	07c2                	slli	a5,a5,0x10
    1b48:	83c1                	srli	a5,a5,0x10
    1b4a:	0037f713          	andi	a4,a5,3
    1b4e:	478d                	li	a5,3
    1b50:	04f71f63          	bne	a4,a5,1bae <USBFS_IRQHandler+0xa16>
    1b54:	4705                	li	a4,1
    1b56:	84e18e23          	sb	a4,-1956(gp) # 200000dc <USBFS_EP0_4Buf>
    1b5a:	a891                	j	1bae <USBFS_IRQHandler+0xa16>
    1b5c:	400237b7          	lui	a5,0x40023
    1b60:	40078793          	addi	a5,a5,1024 # 40023400 <_eusrstack+0x2001e400>
    1b64:	37be                	lhu	a5,42(a5)
    1b66:	07c2                	slli	a5,a5,0x10
    1b68:	83c1                	srli	a5,a5,0x10
    1b6a:	00c7f713          	andi	a4,a5,12
    1b6e:	47b1                	li	a5,12
    1b70:	04f71163          	bne	a4,a5,1bb2 <USBFS_IRQHandler+0xa1a>
    1b74:	4705                	li	a4,1
    1b76:	84e18e23          	sb	a4,-1956(gp) # 200000dc <USBFS_EP0_4Buf>
    1b7a:	a825                	j	1bb2 <USBFS_IRQHandler+0xa1a>
    1b7c:	400237b7          	lui	a5,0x40023
    1b80:	40078793          	addi	a5,a5,1024 # 40023400 <_eusrstack+0x2001e400>
    1b84:	37fe                	lhu	a5,46(a5)
    1b86:	07c2                	slli	a5,a5,0x10
    1b88:	83c1                	srli	a5,a5,0x10
    1b8a:	0037f713          	andi	a4,a5,3
    1b8e:	478d                	li	a5,3
    1b90:	02f71363          	bne	a4,a5,1bb6 <USBFS_IRQHandler+0xa1e>
    1b94:	4705                	li	a4,1
    1b96:	84e18e23          	sb	a4,-1956(gp) # 200000dc <USBFS_EP0_4Buf>
    1b9a:	a831                	j	1bb6 <USBFS_IRQHandler+0xa1e>
    1b9c:	57fd                	li	a5,-1
    1b9e:	fef407a3          	sb	a5,-17(s0)
    1ba2:	0001                	nop
    1ba4:	a811                	j	1bb8 <USBFS_IRQHandler+0xa20>
    1ba6:	57fd                	li	a5,-1
    1ba8:	fef407a3          	sb	a5,-17(s0)
    1bac:	a031                	j	1bb8 <USBFS_IRQHandler+0xa20>
    1bae:	0001                	nop
    1bb0:	a021                	j	1bb8 <USBFS_IRQHandler+0xa20>
    1bb2:	0001                	nop
    1bb4:	a011                	j	1bb8 <USBFS_IRQHandler+0xa20>
    1bb6:	0001                	nop
    1bb8:	82a1d783          	lhu	a5,-2006(gp) # 200000aa <USBFS_SetupReqLen>
    1bbc:	01079713          	slli	a4,a5,0x10
    1bc0:	8341                	srli	a4,a4,0x10
    1bc2:	4789                	li	a5,2
    1bc4:	02e7f263          	bgeu	a5,a4,1be8 <USBFS_IRQHandler+0xa50>
    1bc8:	4709                	li	a4,2
    1bca:	82e19523          	sh	a4,-2006(gp) # 200000aa <USBFS_SetupReqLen>
    1bce:	a829                	j	1be8 <USBFS_IRQHandler+0xa50>
    1bd0:	57fd                	li	a5,-1
    1bd2:	fef407a3          	sb	a5,-17(s0)
    1bd6:	a811                	j	1bea <USBFS_IRQHandler+0xa52>
    1bd8:	0001                	nop
    1bda:	a801                	j	1bea <USBFS_IRQHandler+0xa52>
    1bdc:	0001                	nop
    1bde:	a031                	j	1bea <USBFS_IRQHandler+0xa52>
    1be0:	0001                	nop
    1be2:	a021                	j	1bea <USBFS_IRQHandler+0xa52>
    1be4:	0001                	nop
    1be6:	a011                	j	1bea <USBFS_IRQHandler+0xa52>
    1be8:	0001                	nop
    1bea:	fef44703          	lbu	a4,-17(s0)
    1bee:	0ff00793          	li	a5,255
    1bf2:	00f71a63          	bne	a4,a5,1c06 <USBFS_IRQHandler+0xa6e>
    1bf6:	400237b7          	lui	a5,0x40023
    1bfa:	40078793          	addi	a5,a5,1024 # 40023400 <_eusrstack+0x2001e400>
    1bfe:	0cf00713          	li	a4,207
    1c02:	b3ba                	sh	a4,34(a5)
    1c04:	a065                	j	1cac <USBFS_IRQHandler+0xb14>
    1c06:	8251c783          	lbu	a5,-2011(gp) # 200000a5 <USBFS_SetupReqType>
    1c0a:	0ff7f793          	andi	a5,a5,255
    1c0e:	07e2                	slli	a5,a5,0x18
    1c10:	87e1                	srai	a5,a5,0x18
    1c12:	0607d163          	bgez	a5,1c74 <USBFS_IRQHandler+0xadc>
    1c16:	82a1d783          	lhu	a5,-2006(gp) # 200000aa <USBFS_SetupReqLen>
    1c1a:	01079713          	slli	a4,a5,0x10
    1c1e:	8341                	srli	a4,a4,0x10
    1c20:	04000793          	li	a5,64
    1c24:	00e7e763          	bltu	a5,a4,1c32 <USBFS_IRQHandler+0xa9a>
    1c28:	82a1d783          	lhu	a5,-2006(gp) # 200000aa <USBFS_SetupReqLen>
    1c2c:	07c2                	slli	a5,a5,0x10
    1c2e:	83c1                	srli	a5,a5,0x10
    1c30:	a019                	j	1c36 <USBFS_IRQHandler+0xa9e>
    1c32:	04000793          	li	a5,64
    1c36:	fef41623          	sh	a5,-20(s0)
    1c3a:	82a1d783          	lhu	a5,-2006(gp) # 200000aa <USBFS_SetupReqLen>
    1c3e:	01079713          	slli	a4,a5,0x10
    1c42:	8341                	srli	a4,a4,0x10
    1c44:	fec45783          	lhu	a5,-20(s0)
    1c48:	40f707b3          	sub	a5,a4,a5
    1c4c:	01079713          	slli	a4,a5,0x10
    1c50:	8341                	srli	a4,a4,0x10
    1c52:	82e19523          	sh	a4,-2006(gp) # 200000aa <USBFS_SetupReqLen>
    1c56:	400237b7          	lui	a5,0x40023
    1c5a:	40078793          	addi	a5,a5,1024 # 40023400 <_eusrstack+0x2001e400>
    1c5e:	fec45703          	lhu	a4,-20(s0)
    1c62:	b39a                	sh	a4,32(a5)
    1c64:	400237b7          	lui	a5,0x40023
    1c68:	40078793          	addi	a5,a5,1024 # 40023400 <_eusrstack+0x2001e400>
    1c6c:	04000713          	li	a4,64
    1c70:	b3ba                	sh	a4,34(a5)
    1c72:	a82d                	j	1cac <USBFS_IRQHandler+0xb14>
    1c74:	82a1d783          	lhu	a5,-2006(gp) # 200000aa <USBFS_SetupReqLen>
    1c78:	07c2                	slli	a5,a5,0x10
    1c7a:	83c1                	srli	a5,a5,0x10
    1c7c:	ef99                	bnez	a5,1c9a <USBFS_IRQHandler+0xb02>
    1c7e:	400237b7          	lui	a5,0x40023
    1c82:	40078793          	addi	a5,a5,1024 # 40023400 <_eusrstack+0x2001e400>
    1c86:	02079023          	sh	zero,32(a5)
    1c8a:	400237b7          	lui	a5,0x40023
    1c8e:	40078793          	addi	a5,a5,1024 # 40023400 <_eusrstack+0x2001e400>
    1c92:	04000713          	li	a4,64
    1c96:	b3ba                	sh	a4,34(a5)
    1c98:	a811                	j	1cac <USBFS_IRQHandler+0xb14>
    1c9a:	400237b7          	lui	a5,0x40023
    1c9e:	40078793          	addi	a5,a5,1024 # 40023400 <_eusrstack+0x2001e400>
    1ca2:	08000713          	li	a4,128
    1ca6:	b3ba                	sh	a4,34(a5)
    1ca8:	a011                	j	1cac <USBFS_IRQHandler+0xb14>
    1caa:	0001                	nop
    1cac:	400237b7          	lui	a5,0x40023
    1cb0:	40078793          	addi	a5,a5,1024 # 40023400 <_eusrstack+0x2001e400>
    1cb4:	4709                	li	a4,2
    1cb6:	a3f8                	sb	a4,6(a5)
    1cb8:	a045                	j	1d58 <USBFS_IRQHandler+0xbc0>
    1cba:	fe844783          	lbu	a5,-24(s0)
    1cbe:	8b85                	andi	a5,a5,1
    1cc0:	cb85                	beqz	a5,1cf0 <USBFS_IRQHandler+0xb58>
    1cc2:	82018623          	sb	zero,-2004(gp) # 200000ac <USBFS_DevConfig>
    1cc6:	820186a3          	sb	zero,-2003(gp) # 200000ad <USBFS_DevAddr>
    1cca:	82018723          	sb	zero,-2002(gp) # 200000ae <USBFS_DevSleepStatus>
    1cce:	820187a3          	sb	zero,-2001(gp) # 200000af <USBFS_DevEnumStatus>
    1cd2:	400237b7          	lui	a5,0x40023
    1cd6:	40078793          	addi	a5,a5,1024 # 40023400 <_eusrstack+0x2001e400>
    1cda:	000781a3          	sb	zero,3(a5)
    1cde:	fb3fe0ef          	jal	ra,c90 <USBFS_Device_Endp_Init>
    1ce2:	400237b7          	lui	a5,0x40023
    1ce6:	40078793          	addi	a5,a5,1024 # 40023400 <_eusrstack+0x2001e400>
    1cea:	4705                	li	a4,1
    1cec:	a3f8                	sb	a4,6(a5)
    1cee:	a0ad                	j	1d58 <USBFS_IRQHandler+0xbc0>
    1cf0:	fe844783          	lbu	a5,-24(s0)
    1cf4:	8b91                	andi	a5,a5,4
    1cf6:	cbb1                	beqz	a5,1d4a <USBFS_IRQHandler+0xbb2>
    1cf8:	400237b7          	lui	a5,0x40023
    1cfc:	40078793          	addi	a5,a5,1024 # 40023400 <_eusrstack+0x2001e400>
    1d00:	4711                	li	a4,4
    1d02:	a3f8                	sb	a4,6(a5)
    1d04:	4529                	li	a0,10
    1d06:	76b000ef          	jal	ra,2c70 <Delay_Us>
    1d0a:	400237b7          	lui	a5,0x40023
    1d0e:	40078793          	addi	a5,a5,1024 # 40023400 <_eusrstack+0x2001e400>
    1d12:	33dc                	lbu	a5,5(a5)
    1d14:	0ff7f793          	andi	a5,a5,255
    1d18:	8b91                	andi	a5,a5,4
    1d1a:	cf91                	beqz	a5,1d36 <USBFS_IRQHandler+0xb9e>
    1d1c:	82e1c783          	lbu	a5,-2002(gp) # 200000ae <USBFS_DevSleepStatus>
    1d20:	0ff7f793          	andi	a5,a5,255
    1d24:	0027e793          	ori	a5,a5,2
    1d28:	0ff7f713          	andi	a4,a5,255
    1d2c:	82e18723          	sb	a4,-2002(gp) # 200000ae <USBFS_DevSleepStatus>
    1d30:	82e1c783          	lbu	a5,-2002(gp) # 200000ae <USBFS_DevSleepStatus>
    1d34:	a015                	j	1d58 <USBFS_IRQHandler+0xbc0>
    1d36:	82e1c783          	lbu	a5,-2002(gp) # 200000ae <USBFS_DevSleepStatus>
    1d3a:	0ff7f793          	andi	a5,a5,255
    1d3e:	9bf5                	andi	a5,a5,-3
    1d40:	0ff7f713          	andi	a4,a5,255
    1d44:	82e18723          	sb	a4,-2002(gp) # 200000ae <USBFS_DevSleepStatus>
    1d48:	a801                	j	1d58 <USBFS_IRQHandler+0xbc0>
    1d4a:	400237b7          	lui	a5,0x40023
    1d4e:	40078793          	addi	a5,a5,1024 # 40023400 <_eusrstack+0x2001e400>
    1d52:	fe844703          	lbu	a4,-24(s0)
    1d56:	a3f8                	sb	a4,6(a5)
    1d58:	0001                	nop
    1d5a:	4472                	lw	s0,28(sp)
    1d5c:	6105                	addi	sp,sp,32
    1d5e:	30200073          	mret

00001d62 <RCC_Configuration>:
    1d62:	1141                	addi	sp,sp,-16
    1d64:	c606                	sw	ra,12(sp)
    1d66:	c422                	sw	s0,8(sp)
    1d68:	0800                	addi	s0,sp,16
    1d6a:	4585                	li	a1,1
    1d6c:	4511                	li	a0,4
    1d6e:	3b7000ef          	jal	ra,2924 <RCC_APB2PeriphClockCmd>
    1d72:	4585                	li	a1,1
    1d74:	00020537          	lui	a0,0x20
    1d78:	3f3000ef          	jal	ra,296a <RCC_APB1PeriphClockCmd>
    1d7c:	4585                	li	a1,1
    1d7e:	4509                	li	a0,2
    1d80:	3eb000ef          	jal	ra,296a <RCC_APB1PeriphClockCmd>
    1d84:	4585                	li	a1,1
    1d86:	4505                	li	a0,1
    1d88:	357000ef          	jal	ra,28de <RCC_AHBPeriphClockCmd>
    1d8c:	4781                	li	a5,0
    1d8e:	853e                	mv	a0,a5
    1d90:	40b2                	lw	ra,12(sp)
    1d92:	4422                	lw	s0,8(sp)
    1d94:	0141                	addi	sp,sp,16
    1d96:	8082                	ret

00001d98 <send_to_usb>:
    1d98:	7179                	addi	sp,sp,-48
    1d9a:	d606                	sw	ra,44(sp)
    1d9c:	d422                	sw	s0,40(sp)
    1d9e:	1800                	addi	s0,sp,48
    1da0:	87aa                	mv	a5,a0
    1da2:	872e                	mv	a4,a1
    1da4:	fcf41f23          	sh	a5,-34(s0)
    1da8:	87ba                	mv	a5,a4
    1daa:	fcf40ea3          	sb	a5,-35(s0)
    1dae:	fdd44783          	lbu	a5,-35(s0)
    1db2:	cbb5                	beqz	a5,1e26 <send_to_usb+0x8e>
    1db4:	02d00793          	li	a5,45
    1db8:	fef42423          	sw	a5,-24(s0)
    1dbc:	fe842783          	lw	a5,-24(s0)
    1dc0:	8bfd                	andi	a5,a5,31
    1dc2:	4705                	li	a4,1
    1dc4:	00f716b3          	sll	a3,a4,a5
    1dc8:	e000e737          	lui	a4,0xe000e
    1dcc:	fe842783          	lw	a5,-24(s0)
    1dd0:	8395                	srli	a5,a5,0x5
    1dd2:	06078793          	addi	a5,a5,96
    1dd6:	078a                	slli	a5,a5,0x2
    1dd8:	97ba                	add	a5,a5,a4
    1dda:	c394                	sw	a3,0(a5)
    1ddc:	fde45703          	lhu	a4,-34(s0)
    1de0:	200007b7          	lui	a5,0x20000
    1de4:	59c78793          	addi	a5,a5,1436 # 2000059c <USB_Tx_Buf>
    1de8:	97ba                	add	a5,a5,a4
    1dea:	fdd44703          	lbu	a4,-35(s0)
    1dee:	0742                	slli	a4,a4,0x10
    1df0:	8341                	srli	a4,a4,0x10
    1df2:	4685                	li	a3,1
    1df4:	863a                	mv	a2,a4
    1df6:	85be                	mv	a1,a5
    1df8:	450d                	li	a0,3
    1dfa:	8eaff0ef          	jal	ra,ee4 <USBFS_Endp_DataUp>
    1dfe:	02d00793          	li	a5,45
    1e02:	fef42623          	sw	a5,-20(s0)
    1e06:	fec42783          	lw	a5,-20(s0)
    1e0a:	8bfd                	andi	a5,a5,31
    1e0c:	4705                	li	a4,1
    1e0e:	00f716b3          	sll	a3,a4,a5
    1e12:	e000e737          	lui	a4,0xe000e
    1e16:	fec42783          	lw	a5,-20(s0)
    1e1a:	8395                	srli	a5,a5,0x5
    1e1c:	04078793          	addi	a5,a5,64
    1e20:	078a                	slli	a5,a5,0x2
    1e22:	97ba                	add	a5,a5,a4
    1e24:	c394                	sw	a3,0(a5)
    1e26:	0001                	nop
    1e28:	853e                	mv	a0,a5
    1e2a:	50b2                	lw	ra,44(sp)
    1e2c:	5422                	lw	s0,40(sp)
    1e2e:	6145                	addi	sp,sp,48
    1e30:	8082                	ret

00001e32 <check_usb_data_rdy>:
    1e32:	1141                	addi	sp,sp,-16
    1e34:	c622                	sw	s0,12(sp)
    1e36:	0800                	addi	s0,sp,16
    1e38:	8491c783          	lbu	a5,-1975(gp) # 200000c9 <usb_rx_len>
    1e3c:	07c2                	slli	a5,a5,0x10
    1e3e:	83c1                	srli	a5,a5,0x10
    1e40:	853e                	mv	a0,a5
    1e42:	4432                	lw	s0,12(sp)
    1e44:	0141                	addi	sp,sp,16
    1e46:	8082                	ret

00001e48 <init_cdc_usb>:
    1e48:	1101                	addi	sp,sp,-32
    1e4a:	ce22                	sw	s0,28(sp)
    1e4c:	1000                	addi	s0,sp,32
    1e4e:	84019123          	sh	zero,-1982(gp) # 200000c2 <USB_Rx_LoadNum>
    1e52:	84019223          	sh	zero,-1980(gp) # 200000c4 <USB_Rx_DealNum>
    1e56:	84019323          	sh	zero,-1978(gp) # 200000c6 <USB_Rx_RemainNum>
    1e5a:	fe041723          	sh	zero,-18(s0)
    1e5e:	a831                	j	1e7a <init_cdc_usb+0x32>
    1e60:	fee45703          	lhu	a4,-18(s0)
    1e64:	0706                	slli	a4,a4,0x1
    1e66:	51c18793          	addi	a5,gp,1308 # 20000d9c <USB_Rx_PackLen>
    1e6a:	97ba                	add	a5,a5,a4
    1e6c:	00079023          	sh	zero,0(a5)
    1e70:	fee45783          	lhu	a5,-18(s0)
    1e74:	0785                	addi	a5,a5,1
    1e76:	fef41723          	sh	a5,-18(s0)
    1e7a:	fee45703          	lhu	a4,-18(s0)
    1e7e:	47bd                	li	a5,15
    1e80:	fee7f0e3          	bgeu	a5,a4,1e60 <init_cdc_usb+0x18>
    1e84:	0001                	nop
    1e86:	4472                	lw	s0,28(sp)
    1e88:	6105                	addi	sp,sp,32
    1e8a:	8082                	ret

00001e8c <main>:
    1e8c:	1101                	addi	sp,sp,-32
    1e8e:	ce06                	sw	ra,28(sp)
    1e90:	cc22                	sw	s0,24(sp)
    1e92:	1000                	addi	s0,sp,32
    1e94:	fe041623          	sh	zero,-20(s0)
    1e98:	fe041723          	sh	zero,-18(s0)
    1e9c:	4505                	li	a0,1
    1e9e:	0c9000ef          	jal	ra,2766 <NVIC_PriorityGroupConfig>
    1ea2:	2a99                	jal	1ff8 <SystemCoreClockUpdate>
    1ea4:	587000ef          	jal	ra,2c2a <Delay_Init>
    1ea8:	67f1                	lui	a5,0x1c
    1eaa:	20078513          	addi	a0,a5,512 # 1c200 <_data_lma+0x17d04>
    1eae:	6cb000ef          	jal	ra,2d78 <USART_Printf_Init>
    1eb2:	200007b7          	lui	a5,0x20000
    1eb6:	0807a783          	lw	a5,128(a5) # 20000080 <SystemCoreClock>
    1eba:	85be                	mv	a1,a5
    1ebc:	6791                	lui	a5,0x4
    1ebe:	16878513          	addi	a0,a5,360 # 4168 <_read+0x48>
    1ec2:	0b2010ef          	jal	ra,2f74 <iprintf>
    1ec6:	2c59                	jal	215c <DBGMCU_GetCHIPID>
    1ec8:	87aa                	mv	a5,a0
    1eca:	85be                	mv	a1,a5
    1ecc:	6791                	lui	a5,0x4
    1ece:	17878513          	addi	a0,a5,376 # 4178 <_read+0x58>
    1ed2:	0a2010ef          	jal	ra,2f74 <iprintf>
    1ed6:	3571                	jal	1d62 <RCC_Configuration>
    1ed8:	d97fe0ef          	jal	ra,c6e <USBFS_RCC_Init>
    1edc:	11d000ef          	jal	ra,27f8 <PWR_VDD_SupplyVoltage>
    1ee0:	87aa                	mv	a5,a0
    1ee2:	85be                	mv	a1,a5
    1ee4:	4505                	li	a0,1
    1ee6:	edffe0ef          	jal	ra,dc4 <USBFS_Device_Init>
    1eea:	3fb9                	jal	1e48 <init_cdc_usb>
    1eec:	8d1fe0ef          	jal	ra,7bc <board_init>
    1ef0:	02d00793          	li	a5,45
    1ef4:	fef42423          	sw	a5,-24(s0)
    1ef8:	fe842783          	lw	a5,-24(s0)
    1efc:	8bfd                	andi	a5,a5,31
    1efe:	4705                	li	a4,1
    1f00:	00f716b3          	sll	a3,a4,a5
    1f04:	e000e737          	lui	a4,0xe000e
    1f08:	fe842783          	lw	a5,-24(s0)
    1f0c:	8395                	srli	a5,a5,0x5
    1f0e:	04078793          	addi	a5,a5,64
    1f12:	078a                	slli	a5,a5,0x2
    1f14:	97ba                	add	a5,a5,a4
    1f16:	c394                	sw	a3,0(a5)
    1f18:	4501                	li	a0,0
    1f1a:	b51fe0ef          	jal	ra,a6a <put_out_n>
    1f1e:	6791                	lui	a5,0x4
    1f20:	18878513          	addi	a0,a5,392 # 4188 <_read+0x68>
    1f24:	164010ef          	jal	ra,3088 <puts>
    1f28:	3729                	jal	1e32 <check_usb_data_rdy>
    1f2a:	87aa                	mv	a5,a0
    1f2c:	fef41623          	sh	a5,-20(s0)
    1f30:	fec45783          	lhu	a5,-20(s0)
    1f34:	cba5                	beqz	a5,1fa4 <main+0x118>
    1f36:	fec45783          	lhu	a5,-20(s0)
    1f3a:	0ff7f713          	andi	a4,a5,255
    1f3e:	57c18613          	addi	a2,gp,1404 # 20000dfc <usb_tx_b>
    1f42:	85ba                	mv	a1,a4
    1f44:	53c18513          	addi	a0,gp,1340 # 20000dbc <usb_rx_b>
    1f48:	c72fe0ef          	jal	ra,3ba <parse_cmd>
    1f4c:	87aa                	mv	a5,a0
    1f4e:	fef41623          	sh	a5,-20(s0)
    1f52:	fec45783          	lhu	a5,-20(s0)
    1f56:	c7a1                	beqz	a5,1f9e <main+0x112>
    1f58:	fe041723          	sh	zero,-18(s0)
    1f5c:	a025                	j	1f84 <main+0xf8>
    1f5e:	fee45703          	lhu	a4,-18(s0)
    1f62:	fee45683          	lhu	a3,-18(s0)
    1f66:	57c18793          	addi	a5,gp,1404 # 20000dfc <usb_tx_b>
    1f6a:	97ba                	add	a5,a5,a4
    1f6c:	2398                	lbu	a4,0(a5)
    1f6e:	200007b7          	lui	a5,0x20000
    1f72:	59c78793          	addi	a5,a5,1436 # 2000059c <USB_Tx_Buf>
    1f76:	97b6                	add	a5,a5,a3
    1f78:	a398                	sb	a4,0(a5)
    1f7a:	fee45783          	lhu	a5,-18(s0)
    1f7e:	0785                	addi	a5,a5,1
    1f80:	fef41723          	sh	a5,-18(s0)
    1f84:	fee45703          	lhu	a4,-18(s0)
    1f88:	fec45783          	lhu	a5,-20(s0)
    1f8c:	fcf769e3          	bltu	a4,a5,1f5e <main+0xd2>
    1f90:	fec45783          	lhu	a5,-20(s0)
    1f94:	0ff7f793          	andi	a5,a5,255
    1f98:	85be                	mv	a1,a5
    1f9a:	4501                	li	a0,0
    1f9c:	3bf5                	jal	1d98 <send_to_usb>
    1f9e:	840184a3          	sb	zero,-1975(gp) # 200000c9 <usb_rx_len>
    1fa2:	b759                	j	1f28 <main+0x9c>
    1fa4:	06400513          	li	a0,100
    1fa8:	54d000ef          	jal	ra,2cf4 <Delay_Ms>
    1fac:	bfb5                	j	1f28 <main+0x9c>

00001fae <SystemInit>:
    1fae:	1141                	addi	sp,sp,-16
    1fb0:	c606                	sw	ra,12(sp)
    1fb2:	c422                	sw	s0,8(sp)
    1fb4:	0800                	addi	s0,sp,16
    1fb6:	400217b7          	lui	a5,0x40021
    1fba:	4398                	lw	a4,0(a5)
    1fbc:	400217b7          	lui	a5,0x40021
    1fc0:	00176713          	ori	a4,a4,1
    1fc4:	c398                	sw	a4,0(a5)
    1fc6:	400217b7          	lui	a5,0x40021
    1fca:	43d8                	lw	a4,4(a5)
    1fcc:	400217b7          	lui	a5,0x40021
    1fd0:	05076713          	ori	a4,a4,80
    1fd4:	c3d8                	sw	a4,4(a5)
    1fd6:	400217b7          	lui	a5,0x40021
    1fda:	43d4                	lw	a3,4(a5)
    1fdc:	400217b7          	lui	a5,0x40021
    1fe0:	f9000737          	lui	a4,0xf9000
    1fe4:	f5f70713          	addi	a4,a4,-161 # f8ffff5f <_eusrstack+0xd8ffaf5f>
    1fe8:	8f75                	and	a4,a4,a3
    1fea:	c3d8                	sw	a4,4(a5)
    1fec:	2071                	jal	2078 <SetSysClock>
    1fee:	0001                	nop
    1ff0:	40b2                	lw	ra,12(sp)
    1ff2:	4422                	lw	s0,8(sp)
    1ff4:	0141                	addi	sp,sp,16
    1ff6:	8082                	ret

00001ff8 <SystemCoreClockUpdate>:
    1ff8:	1101                	addi	sp,sp,-32
    1ffa:	ce22                	sw	s0,28(sp)
    1ffc:	1000                	addi	s0,sp,32
    1ffe:	fe042623          	sw	zero,-20(s0)
    2002:	200007b7          	lui	a5,0x20000
    2006:	02dc7737          	lui	a4,0x2dc7
    200a:	c0070713          	addi	a4,a4,-1024 # 2dc6c00 <_data_lma+0x2dc2704>
    200e:	08e7a023          	sw	a4,128(a5) # 20000080 <SystemCoreClock>
    2012:	400217b7          	lui	a5,0x40021
    2016:	43dc                	lw	a5,4(a5)
    2018:	8391                	srli	a5,a5,0x4
    201a:	00f7f713          	andi	a4,a5,15
    201e:	200007b7          	lui	a5,0x20000
    2022:	00078793          	mv	a5,a5
    2026:	97ba                	add	a5,a5,a4
    2028:	239c                	lbu	a5,0(a5)
    202a:	0ff7f793          	andi	a5,a5,255
    202e:	fef42623          	sw	a5,-20(s0)
    2032:	400217b7          	lui	a5,0x40021
    2036:	43dc                	lw	a5,4(a5)
    2038:	0807f793          	andi	a5,a5,128
    203c:	ef91                	bnez	a5,2058 <SystemCoreClockUpdate+0x60>
    203e:	200007b7          	lui	a5,0x20000
    2042:	0807a703          	lw	a4,128(a5) # 20000080 <SystemCoreClock>
    2046:	fec42783          	lw	a5,-20(s0)
    204a:	02f75733          	divu	a4,a4,a5
    204e:	200007b7          	lui	a5,0x20000
    2052:	08e7a023          	sw	a4,128(a5) # 20000080 <SystemCoreClock>
    2056:	a829                	j	2070 <SystemCoreClockUpdate+0x78>
    2058:	200007b7          	lui	a5,0x20000
    205c:	0807a703          	lw	a4,128(a5) # 20000080 <SystemCoreClock>
    2060:	fec42783          	lw	a5,-20(s0)
    2064:	00f75733          	srl	a4,a4,a5
    2068:	200007b7          	lui	a5,0x20000
    206c:	08e7a023          	sw	a4,128(a5) # 20000080 <SystemCoreClock>
    2070:	0001                	nop
    2072:	4472                	lw	s0,28(sp)
    2074:	6105                	addi	sp,sp,32
    2076:	8082                	ret

00002078 <SetSysClock>:
    2078:	1141                	addi	sp,sp,-16
    207a:	c606                	sw	ra,12(sp)
    207c:	c422                	sw	s0,8(sp)
    207e:	0800                	addi	s0,sp,16
    2080:	2031                	jal	208c <SetSysClockTo48_HSI>
    2082:	0001                	nop
    2084:	40b2                	lw	ra,12(sp)
    2086:	4422                	lw	s0,8(sp)
    2088:	0141                	addi	sp,sp,16
    208a:	8082                	ret

0000208c <SetSysClockTo48_HSI>:
    208c:	1141                	addi	sp,sp,-16
    208e:	c622                	sw	s0,12(sp)
    2090:	0800                	addi	s0,sp,16
    2092:	400227b7          	lui	a5,0x40022
    2096:	4398                	lw	a4,0(a5)
    2098:	400227b7          	lui	a5,0x40022
    209c:	9b71                	andi	a4,a4,-4
    209e:	c398                	sw	a4,0(a5)
    20a0:	400227b7          	lui	a5,0x40022
    20a4:	4398                	lw	a4,0(a5)
    20a6:	400227b7          	lui	a5,0x40022
    20aa:	00276713          	ori	a4,a4,2
    20ae:	c398                	sw	a4,0(a5)
    20b0:	400217b7          	lui	a5,0x40021
    20b4:	43d8                	lw	a4,4(a5)
    20b6:	400217b7          	lui	a5,0x40021
    20ba:	f0f77713          	andi	a4,a4,-241
    20be:	c3d8                	sw	a4,4(a5)
    20c0:	40021737          	lui	a4,0x40021
    20c4:	400217b7          	lui	a5,0x40021
    20c8:	4358                	lw	a4,4(a4)
    20ca:	c3d8                	sw	a4,4(a5)
    20cc:	0001                	nop
    20ce:	4432                	lw	s0,12(sp)
    20d0:	0141                	addi	sp,sp,16
    20d2:	8082                	ret

000020d4 <ADC1_IRQHandler>:
    20d4:	a001                	j	20d4 <ADC1_IRQHandler>

000020d6 <handle_reset>:
    20d6:	1fffe197          	auipc	gp,0x1fffe
    20da:	7aa18193          	addi	gp,gp,1962 # 20000880 <__global_pointer$>
    20de:	20003117          	auipc	sp,0x20003
    20e2:	f2210113          	addi	sp,sp,-222 # 20005000 <_eusrstack>
    20e6:	00002517          	auipc	a0,0x2
    20ea:	41650513          	addi	a0,a0,1046 # 44fc <_data_lma>
    20ee:	1fffe597          	auipc	a1,0x1fffe
    20f2:	f1258593          	addi	a1,a1,-238 # 20000000 <_data_vma>
    20f6:	82018613          	addi	a2,gp,-2016 # 200000a0 <_edata>
    20fa:	00c5fa63          	bgeu	a1,a2,210e <handle_reset+0x38>
    20fe:	00052283          	lw	t0,0(a0)
    2102:	0055a023          	sw	t0,0(a1)
    2106:	0511                	addi	a0,a0,4
    2108:	0591                	addi	a1,a1,4
    210a:	fec5eae3          	bltu	a1,a2,20fe <handle_reset+0x28>
    210e:	82018513          	addi	a0,gp,-2016 # 200000a0 <_edata>
    2112:	5c018593          	addi	a1,gp,1472 # 20000e40 <_ebss>
    2116:	00b57763          	bgeu	a0,a1,2124 <handle_reset+0x4e>
    211a:	00052023          	sw	zero,0(a0)
    211e:	0511                	addi	a0,a0,4
    2120:	feb56de3          	bltu	a0,a1,211a <handle_reset+0x44>
    2124:	42fd                	li	t0,31
    2126:	bc029073          	csrw	0xbc0,t0
    212a:	428d                	li	t0,3
    212c:	80429073          	csrw	0x804,t0
    2130:	08800293          	li	t0,136
    2134:	3002a073          	csrs	mstatus,t0
    2138:	ffffe297          	auipc	t0,0xffffe
    213c:	ecc28293          	addi	t0,t0,-308 # 4 <_einit>
    2140:	0032e293          	ori	t0,t0,3
    2144:	30529073          	csrw	mtvec,t0
    2148:	e67ff0ef          	jal	ra,1fae <SystemInit>
    214c:	00000297          	auipc	t0,0x0
    2150:	d4028293          	addi	t0,t0,-704 # 1e8c <main>
    2154:	34129073          	csrw	mepc,t0
    2158:	30200073          	mret

0000215c <DBGMCU_GetCHIPID>:
    215c:	1141                	addi	sp,sp,-16
    215e:	c622                	sw	s0,12(sp)
    2160:	0800                	addi	s0,sp,16
    2162:	1ffff7b7          	lui	a5,0x1ffff
    2166:	70478793          	addi	a5,a5,1796 # 1ffff704 <_data_lma+0x1fffb208>
    216a:	439c                	lw	a5,0(a5)
    216c:	853e                	mv	a0,a5
    216e:	4432                	lw	s0,12(sp)
    2170:	0141                	addi	sp,sp,16
    2172:	8082                	ret

00002174 <GPIO_Init>:
    2174:	7139                	addi	sp,sp,-64
    2176:	de22                	sw	s0,60(sp)
    2178:	0080                	addi	s0,sp,64
    217a:	fca42623          	sw	a0,-52(s0)
    217e:	fcb42423          	sw	a1,-56(s0)
    2182:	fe042623          	sw	zero,-20(s0)
    2186:	fe042023          	sw	zero,-32(s0)
    218a:	fe042423          	sw	zero,-24(s0)
    218e:	fc042e23          	sw	zero,-36(s0)
    2192:	fe042223          	sw	zero,-28(s0)
    2196:	fc042c23          	sw	zero,-40(s0)
    219a:	fc842783          	lw	a5,-56(s0)
    219e:	479c                	lw	a5,8(a5)
    21a0:	8bbd                	andi	a5,a5,15
    21a2:	fef42623          	sw	a5,-20(s0)
    21a6:	fc842783          	lw	a5,-56(s0)
    21aa:	479c                	lw	a5,8(a5)
    21ac:	8bc1                	andi	a5,a5,16
    21ae:	cb89                	beqz	a5,21c0 <GPIO_Init+0x4c>
    21b0:	fc842783          	lw	a5,-56(s0)
    21b4:	43dc                	lw	a5,4(a5)
    21b6:	fec42703          	lw	a4,-20(s0)
    21ba:	8fd9                	or	a5,a5,a4
    21bc:	fef42623          	sw	a5,-20(s0)
    21c0:	fc842783          	lw	a5,-56(s0)
    21c4:	439c                	lw	a5,0(a5)
    21c6:	0ff7f793          	andi	a5,a5,255
    21ca:	cfe1                	beqz	a5,22a2 <GPIO_Init+0x12e>
    21cc:	fcc42783          	lw	a5,-52(s0)
    21d0:	439c                	lw	a5,0(a5)
    21d2:	fef42223          	sw	a5,-28(s0)
    21d6:	fe042423          	sw	zero,-24(s0)
    21da:	a855                	j	228e <GPIO_Init+0x11a>
    21dc:	fe842783          	lw	a5,-24(s0)
    21e0:	4705                	li	a4,1
    21e2:	00f717b3          	sll	a5,a4,a5
    21e6:	fcf42e23          	sw	a5,-36(s0)
    21ea:	fc842783          	lw	a5,-56(s0)
    21ee:	439c                	lw	a5,0(a5)
    21f0:	fdc42703          	lw	a4,-36(s0)
    21f4:	8ff9                	and	a5,a5,a4
    21f6:	fef42023          	sw	a5,-32(s0)
    21fa:	fe042703          	lw	a4,-32(s0)
    21fe:	fdc42783          	lw	a5,-36(s0)
    2202:	08f71163          	bne	a4,a5,2284 <GPIO_Init+0x110>
    2206:	fe842783          	lw	a5,-24(s0)
    220a:	078a                	slli	a5,a5,0x2
    220c:	fcf42e23          	sw	a5,-36(s0)
    2210:	fdc42783          	lw	a5,-36(s0)
    2214:	473d                	li	a4,15
    2216:	00f717b3          	sll	a5,a4,a5
    221a:	fcf42c23          	sw	a5,-40(s0)
    221e:	fd842783          	lw	a5,-40(s0)
    2222:	fff7c793          	not	a5,a5
    2226:	fe442703          	lw	a4,-28(s0)
    222a:	8ff9                	and	a5,a5,a4
    222c:	fef42223          	sw	a5,-28(s0)
    2230:	fdc42783          	lw	a5,-36(s0)
    2234:	fec42703          	lw	a4,-20(s0)
    2238:	00f717b3          	sll	a5,a4,a5
    223c:	fe442703          	lw	a4,-28(s0)
    2240:	8fd9                	or	a5,a5,a4
    2242:	fef42223          	sw	a5,-28(s0)
    2246:	fc842783          	lw	a5,-56(s0)
    224a:	4798                	lw	a4,8(a5)
    224c:	02800793          	li	a5,40
    2250:	00f71b63          	bne	a4,a5,2266 <GPIO_Init+0xf2>
    2254:	fe842783          	lw	a5,-24(s0)
    2258:	4705                	li	a4,1
    225a:	00f71733          	sll	a4,a4,a5
    225e:	fcc42783          	lw	a5,-52(s0)
    2262:	cbd8                	sw	a4,20(a5)
    2264:	a005                	j	2284 <GPIO_Init+0x110>
    2266:	fc842783          	lw	a5,-56(s0)
    226a:	4798                	lw	a4,8(a5)
    226c:	04800793          	li	a5,72
    2270:	00f71a63          	bne	a4,a5,2284 <GPIO_Init+0x110>
    2274:	fe842783          	lw	a5,-24(s0)
    2278:	4705                	li	a4,1
    227a:	00f71733          	sll	a4,a4,a5
    227e:	fcc42783          	lw	a5,-52(s0)
    2282:	cb98                	sw	a4,16(a5)
    2284:	fe842783          	lw	a5,-24(s0)
    2288:	0785                	addi	a5,a5,1
    228a:	fef42423          	sw	a5,-24(s0)
    228e:	fe842703          	lw	a4,-24(s0)
    2292:	479d                	li	a5,7
    2294:	f4e7f4e3          	bgeu	a5,a4,21dc <GPIO_Init+0x68>
    2298:	fcc42783          	lw	a5,-52(s0)
    229c:	fe442703          	lw	a4,-28(s0)
    22a0:	c398                	sw	a4,0(a5)
    22a2:	fc842783          	lw	a5,-56(s0)
    22a6:	4398                	lw	a4,0(a5)
    22a8:	67c1                	lui	a5,0x10
    22aa:	f0078793          	addi	a5,a5,-256 # ff00 <_data_lma+0xba04>
    22ae:	8ff9                	and	a5,a5,a4
    22b0:	16078663          	beqz	a5,241c <GPIO_Init+0x2a8>
    22b4:	fcc42703          	lw	a4,-52(s0)
    22b8:	400117b7          	lui	a5,0x40011
    22bc:	80078793          	addi	a5,a5,-2048 # 40010800 <_eusrstack+0x2000b800>
    22c0:	00f71963          	bne	a4,a5,22d2 <GPIO_Init+0x15e>
    22c4:	200007b7          	lui	a5,0x20000
    22c8:	0847a783          	lw	a5,132(a5) # 20000084 <CFGHR_tmpA>
    22cc:	fef42223          	sw	a5,-28(s0)
    22d0:	a805                	j	2300 <GPIO_Init+0x18c>
    22d2:	fcc42703          	lw	a4,-52(s0)
    22d6:	400117b7          	lui	a5,0x40011
    22da:	c0078793          	addi	a5,a5,-1024 # 40010c00 <_eusrstack+0x2000bc00>
    22de:	00f71763          	bne	a4,a5,22ec <GPIO_Init+0x178>
    22e2:	8081a783          	lw	a5,-2040(gp) # 20000088 <CFGHR_tmpB>
    22e6:	fef42223          	sw	a5,-28(s0)
    22ea:	a819                	j	2300 <GPIO_Init+0x18c>
    22ec:	fcc42703          	lw	a4,-52(s0)
    22f0:	400117b7          	lui	a5,0x40011
    22f4:	00f71663          	bne	a4,a5,2300 <GPIO_Init+0x18c>
    22f8:	80c1a783          	lw	a5,-2036(gp) # 2000008c <CFGHR_tmpC>
    22fc:	fef42223          	sw	a5,-28(s0)
    2300:	fe042423          	sw	zero,-24(s0)
    2304:	a865                	j	23bc <GPIO_Init+0x248>
    2306:	fe842783          	lw	a5,-24(s0)
    230a:	07a1                	addi	a5,a5,8
    230c:	4705                	li	a4,1
    230e:	00f717b3          	sll	a5,a4,a5
    2312:	fcf42e23          	sw	a5,-36(s0)
    2316:	fc842783          	lw	a5,-56(s0)
    231a:	439c                	lw	a5,0(a5)
    231c:	fdc42703          	lw	a4,-36(s0)
    2320:	8ff9                	and	a5,a5,a4
    2322:	fef42023          	sw	a5,-32(s0)
    2326:	fe042703          	lw	a4,-32(s0)
    232a:	fdc42783          	lw	a5,-36(s0)
    232e:	08f71263          	bne	a4,a5,23b2 <GPIO_Init+0x23e>
    2332:	fe842783          	lw	a5,-24(s0)
    2336:	078a                	slli	a5,a5,0x2
    2338:	fcf42e23          	sw	a5,-36(s0)
    233c:	fdc42783          	lw	a5,-36(s0)
    2340:	473d                	li	a4,15
    2342:	00f717b3          	sll	a5,a4,a5
    2346:	fcf42c23          	sw	a5,-40(s0)
    234a:	fd842783          	lw	a5,-40(s0)
    234e:	fff7c793          	not	a5,a5
    2352:	fe442703          	lw	a4,-28(s0)
    2356:	8ff9                	and	a5,a5,a4
    2358:	fef42223          	sw	a5,-28(s0)
    235c:	fdc42783          	lw	a5,-36(s0)
    2360:	fec42703          	lw	a4,-20(s0)
    2364:	00f717b3          	sll	a5,a4,a5
    2368:	fe442703          	lw	a4,-28(s0)
    236c:	8fd9                	or	a5,a5,a4
    236e:	fef42223          	sw	a5,-28(s0)
    2372:	fc842783          	lw	a5,-56(s0)
    2376:	4798                	lw	a4,8(a5)
    2378:	02800793          	li	a5,40
    237c:	00f71b63          	bne	a4,a5,2392 <GPIO_Init+0x21e>
    2380:	fe842783          	lw	a5,-24(s0)
    2384:	07a1                	addi	a5,a5,8
    2386:	4705                	li	a4,1
    2388:	00f71733          	sll	a4,a4,a5
    238c:	fcc42783          	lw	a5,-52(s0)
    2390:	cbd8                	sw	a4,20(a5)
    2392:	fc842783          	lw	a5,-56(s0)
    2396:	4798                	lw	a4,8(a5)
    2398:	04800793          	li	a5,72
    239c:	00f71b63          	bne	a4,a5,23b2 <GPIO_Init+0x23e>
    23a0:	fe842783          	lw	a5,-24(s0)
    23a4:	07a1                	addi	a5,a5,8
    23a6:	4705                	li	a4,1
    23a8:	00f71733          	sll	a4,a4,a5
    23ac:	fcc42783          	lw	a5,-52(s0)
    23b0:	cb98                	sw	a4,16(a5)
    23b2:	fe842783          	lw	a5,-24(s0)
    23b6:	0785                	addi	a5,a5,1
    23b8:	fef42423          	sw	a5,-24(s0)
    23bc:	fe842703          	lw	a4,-24(s0)
    23c0:	479d                	li	a5,7
    23c2:	f4e7f2e3          	bgeu	a5,a4,2306 <GPIO_Init+0x192>
    23c6:	fcc42783          	lw	a5,-52(s0)
    23ca:	fe442703          	lw	a4,-28(s0)
    23ce:	c3d8                	sw	a4,4(a5)
    23d0:	fcc42703          	lw	a4,-52(s0)
    23d4:	400117b7          	lui	a5,0x40011
    23d8:	80078793          	addi	a5,a5,-2048 # 40010800 <_eusrstack+0x2000b800>
    23dc:	00f71963          	bne	a4,a5,23ee <GPIO_Init+0x27a>
    23e0:	200007b7          	lui	a5,0x20000
    23e4:	fe442703          	lw	a4,-28(s0)
    23e8:	08e7a223          	sw	a4,132(a5) # 20000084 <CFGHR_tmpA>
    23ec:	a805                	j	241c <GPIO_Init+0x2a8>
    23ee:	fcc42703          	lw	a4,-52(s0)
    23f2:	400117b7          	lui	a5,0x40011
    23f6:	c0078793          	addi	a5,a5,-1024 # 40010c00 <_eusrstack+0x2000bc00>
    23fa:	00f71763          	bne	a4,a5,2408 <GPIO_Init+0x294>
    23fe:	fe442703          	lw	a4,-28(s0)
    2402:	80e1a423          	sw	a4,-2040(gp) # 20000088 <CFGHR_tmpB>
    2406:	a819                	j	241c <GPIO_Init+0x2a8>
    2408:	fcc42703          	lw	a4,-52(s0)
    240c:	400117b7          	lui	a5,0x40011
    2410:	00f71663          	bne	a4,a5,241c <GPIO_Init+0x2a8>
    2414:	fe442703          	lw	a4,-28(s0)
    2418:	80e1a623          	sw	a4,-2036(gp) # 2000008c <CFGHR_tmpC>
    241c:	fc842783          	lw	a5,-56(s0)
    2420:	4398                	lw	a4,0(a5)
    2422:	67c1                	lui	a5,0x10
    2424:	0cf76e63          	bltu	a4,a5,2500 <GPIO_Init+0x38c>
    2428:	fcc42783          	lw	a5,-52(s0)
    242c:	4fdc                	lw	a5,28(a5)
    242e:	fef42223          	sw	a5,-28(s0)
    2432:	fe042423          	sw	zero,-24(s0)
    2436:	a85d                	j	24ec <GPIO_Init+0x378>
    2438:	fe842783          	lw	a5,-24(s0)
    243c:	07c1                	addi	a5,a5,16
    243e:	4705                	li	a4,1
    2440:	00f717b3          	sll	a5,a4,a5
    2444:	fcf42e23          	sw	a5,-36(s0)
    2448:	fc842783          	lw	a5,-56(s0)
    244c:	439c                	lw	a5,0(a5)
    244e:	fdc42703          	lw	a4,-36(s0)
    2452:	8ff9                	and	a5,a5,a4
    2454:	fef42023          	sw	a5,-32(s0)
    2458:	fe042703          	lw	a4,-32(s0)
    245c:	fdc42783          	lw	a5,-36(s0)
    2460:	08f71163          	bne	a4,a5,24e2 <GPIO_Init+0x36e>
    2464:	fe842783          	lw	a5,-24(s0)
    2468:	078a                	slli	a5,a5,0x2
    246a:	fcf42e23          	sw	a5,-36(s0)
    246e:	fdc42783          	lw	a5,-36(s0)
    2472:	473d                	li	a4,15
    2474:	00f717b3          	sll	a5,a4,a5
    2478:	fcf42c23          	sw	a5,-40(s0)
    247c:	fd842783          	lw	a5,-40(s0)
    2480:	fff7c793          	not	a5,a5
    2484:	fe442703          	lw	a4,-28(s0)
    2488:	8ff9                	and	a5,a5,a4
    248a:	fef42223          	sw	a5,-28(s0)
    248e:	fdc42783          	lw	a5,-36(s0)
    2492:	fec42703          	lw	a4,-20(s0)
    2496:	00f717b3          	sll	a5,a4,a5
    249a:	fe442703          	lw	a4,-28(s0)
    249e:	8fd9                	or	a5,a5,a4
    24a0:	fef42223          	sw	a5,-28(s0)
    24a4:	fc842783          	lw	a5,-56(s0)
    24a8:	4798                	lw	a4,8(a5)
    24aa:	02800793          	li	a5,40
    24ae:	00f71b63          	bne	a4,a5,24c4 <GPIO_Init+0x350>
    24b2:	fe842783          	lw	a5,-24(s0)
    24b6:	07c1                	addi	a5,a5,16
    24b8:	4705                	li	a4,1
    24ba:	00f71733          	sll	a4,a4,a5
    24be:	fcc42783          	lw	a5,-52(s0)
    24c2:	cbd8                	sw	a4,20(a5)
    24c4:	fc842783          	lw	a5,-56(s0)
    24c8:	4798                	lw	a4,8(a5)
    24ca:	04800793          	li	a5,72
    24ce:	00f71a63          	bne	a4,a5,24e2 <GPIO_Init+0x36e>
    24d2:	fe842783          	lw	a5,-24(s0)
    24d6:	4705                	li	a4,1
    24d8:	00f71733          	sll	a4,a4,a5
    24dc:	fcc42783          	lw	a5,-52(s0)
    24e0:	d398                	sw	a4,32(a5)
    24e2:	fe842783          	lw	a5,-24(s0)
    24e6:	0785                	addi	a5,a5,1
    24e8:	fef42423          	sw	a5,-24(s0)
    24ec:	fe842703          	lw	a4,-24(s0)
    24f0:	479d                	li	a5,7
    24f2:	f4e7f3e3          	bgeu	a5,a4,2438 <GPIO_Init+0x2c4>
    24f6:	fcc42783          	lw	a5,-52(s0)
    24fa:	fe442703          	lw	a4,-28(s0)
    24fe:	cfd8                	sw	a4,28(a5)
    2500:	0001                	nop
    2502:	5472                	lw	s0,60(sp)
    2504:	6121                	addi	sp,sp,64
    2506:	8082                	ret

00002508 <GPIO_ReadInputDataBit>:
    2508:	7179                	addi	sp,sp,-48
    250a:	d622                	sw	s0,44(sp)
    250c:	1800                	addi	s0,sp,48
    250e:	fca42e23          	sw	a0,-36(s0)
    2512:	fcb42c23          	sw	a1,-40(s0)
    2516:	fe0407a3          	sb	zero,-17(s0)
    251a:	fdc42783          	lw	a5,-36(s0)
    251e:	4798                	lw	a4,8(a5)
    2520:	fd842783          	lw	a5,-40(s0)
    2524:	8ff9                	and	a5,a5,a4
    2526:	c789                	beqz	a5,2530 <GPIO_ReadInputDataBit+0x28>
    2528:	4785                	li	a5,1
    252a:	fef407a3          	sb	a5,-17(s0)
    252e:	a019                	j	2534 <GPIO_ReadInputDataBit+0x2c>
    2530:	fe0407a3          	sb	zero,-17(s0)
    2534:	fef44783          	lbu	a5,-17(s0)
    2538:	853e                	mv	a0,a5
    253a:	5432                	lw	s0,44(sp)
    253c:	6145                	addi	sp,sp,48
    253e:	8082                	ret

00002540 <GPIO_WriteBit>:
    2540:	1101                	addi	sp,sp,-32
    2542:	ce22                	sw	s0,28(sp)
    2544:	1000                	addi	s0,sp,32
    2546:	fea42623          	sw	a0,-20(s0)
    254a:	feb42423          	sw	a1,-24(s0)
    254e:	fec42223          	sw	a2,-28(s0)
    2552:	fe442783          	lw	a5,-28(s0)
    2556:	c38d                	beqz	a5,2578 <GPIO_WriteBit+0x38>
    2558:	fe842703          	lw	a4,-24(s0)
    255c:	67c1                	lui	a5,0x10
    255e:	17fd                	addi	a5,a5,-1
    2560:	8f7d                	and	a4,a4,a5
    2562:	fec42783          	lw	a5,-20(s0)
    2566:	cb98                	sw	a4,16(a5)
    2568:	fe842783          	lw	a5,-24(s0)
    256c:	0107d713          	srli	a4,a5,0x10
    2570:	fec42783          	lw	a5,-20(s0)
    2574:	d398                	sw	a4,32(a5)
    2576:	a031                	j	2582 <GPIO_WriteBit+0x42>
    2578:	fec42783          	lw	a5,-20(s0)
    257c:	fe842703          	lw	a4,-24(s0)
    2580:	cbd8                	sw	a4,20(a5)
    2582:	0001                	nop
    2584:	4472                	lw	s0,28(sp)
    2586:	6105                	addi	sp,sp,32
    2588:	8082                	ret

0000258a <GPIO_PinRemapConfig>:
    258a:	7179                	addi	sp,sp,-48
    258c:	d622                	sw	s0,44(sp)
    258e:	1800                	addi	s0,sp,48
    2590:	fca42e23          	sw	a0,-36(s0)
    2594:	fcb42c23          	sw	a1,-40(s0)
    2598:	fe042423          	sw	zero,-24(s0)
    259c:	fe042223          	sw	zero,-28(s0)
    25a0:	fe042623          	sw	zero,-20(s0)
    25a4:	fe042023          	sw	zero,-32(s0)
    25a8:	400107b7          	lui	a5,0x40010
    25ac:	43dc                	lw	a5,4(a5)
    25ae:	fef42623          	sw	a5,-20(s0)
    25b2:	fdc42783          	lw	a5,-36(s0)
    25b6:	83c1                	srli	a5,a5,0x10
    25b8:	8bbd                	andi	a5,a5,15
    25ba:	fef42023          	sw	a5,-32(s0)
    25be:	fdc42703          	lw	a4,-36(s0)
    25c2:	67c1                	lui	a5,0x10
    25c4:	17fd                	addi	a5,a5,-1
    25c6:	8ff9                	and	a5,a5,a4
    25c8:	fef42423          	sw	a5,-24(s0)
    25cc:	fdc42703          	lw	a4,-36(s0)
    25d0:	080007b7          	lui	a5,0x8000
    25d4:	8ff9                	and	a5,a5,a4
    25d6:	cfe9                	beqz	a5,26b0 <GPIO_PinRemapConfig+0x126>
    25d8:	fdc42703          	lw	a4,-36(s0)
    25dc:	003007b7          	lui	a5,0x300
    25e0:	8f7d                	and	a4,a4,a5
    25e2:	003007b7          	lui	a5,0x300
    25e6:	02f71563          	bne	a4,a5,2610 <GPIO_PinRemapConfig+0x86>
    25ea:	fec42703          	lw	a4,-20(s0)
    25ee:	f10007b7          	lui	a5,0xf1000
    25f2:	17fd                	addi	a5,a5,-1
    25f4:	8ff9                	and	a5,a5,a4
    25f6:	fef42623          	sw	a5,-20(s0)
    25fa:	400107b7          	lui	a5,0x40010
    25fe:	43d4                	lw	a3,4(a5)
    2600:	400107b7          	lui	a5,0x40010
    2604:	f1000737          	lui	a4,0xf1000
    2608:	177d                	addi	a4,a4,-1
    260a:	8f75                	and	a4,a4,a3
    260c:	c3d8                	sw	a4,4(a5)
    260e:	a21d                	j	2734 <GPIO_PinRemapConfig+0x1aa>
    2610:	fdc42703          	lw	a4,-36(s0)
    2614:	004007b7          	lui	a5,0x400
    2618:	8ff9                	and	a5,a5,a4
    261a:	cf9d                	beqz	a5,2658 <GPIO_PinRemapConfig+0xce>
    261c:	000387b7          	lui	a5,0x38
    2620:	fef42223          	sw	a5,-28(s0)
    2624:	fe442783          	lw	a5,-28(s0)
    2628:	fff7c793          	not	a5,a5
    262c:	fec42703          	lw	a4,-20(s0)
    2630:	8ff9                	and	a5,a5,a4
    2632:	fef42623          	sw	a5,-20(s0)
    2636:	fd842783          	lw	a5,-40(s0)
    263a:	cb89                	beqz	a5,264c <GPIO_PinRemapConfig+0xc2>
    263c:	fe842783          	lw	a5,-24(s0)
    2640:	07be                	slli	a5,a5,0xf
    2642:	fec42703          	lw	a4,-20(s0)
    2646:	8fd9                	or	a5,a5,a4
    2648:	fef42623          	sw	a5,-20(s0)
    264c:	400107b7          	lui	a5,0x40010
    2650:	fec42703          	lw	a4,-20(s0)
    2654:	c3d8                	sw	a4,4(a5)
    2656:	a229                	j	2760 <GPIO_PinRemapConfig+0x1d6>
    2658:	fdc42703          	lw	a4,-36(s0)
    265c:	003007b7          	lui	a5,0x300
    2660:	8f7d                	and	a4,a4,a5
    2662:	002007b7          	lui	a5,0x200
    2666:	02f71463          	bne	a4,a5,268e <GPIO_PinRemapConfig+0x104>
    266a:	fe042783          	lw	a5,-32(s0)
    266e:	07c1                	addi	a5,a5,16
    2670:	471d                	li	a4,7
    2672:	00f717b3          	sll	a5,a4,a5
    2676:	fef42223          	sw	a5,-28(s0)
    267a:	fe442783          	lw	a5,-28(s0)
    267e:	fff7c793          	not	a5,a5
    2682:	fec42703          	lw	a4,-20(s0)
    2686:	8ff9                	and	a5,a5,a4
    2688:	fef42623          	sw	a5,-20(s0)
    268c:	a065                	j	2734 <GPIO_PinRemapConfig+0x1aa>
    268e:	fe042783          	lw	a5,-32(s0)
    2692:	471d                	li	a4,7
    2694:	00f717b3          	sll	a5,a4,a5
    2698:	fef42223          	sw	a5,-28(s0)
    269c:	fe442783          	lw	a5,-28(s0)
    26a0:	fff7c793          	not	a5,a5
    26a4:	fec42703          	lw	a4,-20(s0)
    26a8:	8ff9                	and	a5,a5,a4
    26aa:	fef42623          	sw	a5,-20(s0)
    26ae:	a059                	j	2734 <GPIO_PinRemapConfig+0x1aa>
    26b0:	fdc42703          	lw	a4,-36(s0)
    26b4:	003007b7          	lui	a5,0x300
    26b8:	8f7d                	and	a4,a4,a5
    26ba:	003007b7          	lui	a5,0x300
    26be:	02f71463          	bne	a4,a5,26e6 <GPIO_PinRemapConfig+0x15c>
    26c2:	fe042783          	lw	a5,-32(s0)
    26c6:	07c1                	addi	a5,a5,16
    26c8:	470d                	li	a4,3
    26ca:	00f717b3          	sll	a5,a4,a5
    26ce:	fef42223          	sw	a5,-28(s0)
    26d2:	fe442783          	lw	a5,-28(s0)
    26d6:	fff7c793          	not	a5,a5
    26da:	fec42703          	lw	a4,-20(s0)
    26de:	8ff9                	and	a5,a5,a4
    26e0:	fef42623          	sw	a5,-20(s0)
    26e4:	a881                	j	2734 <GPIO_PinRemapConfig+0x1aa>
    26e6:	fdc42703          	lw	a4,-36(s0)
    26ea:	001007b7          	lui	a5,0x100
    26ee:	8ff9                	and	a5,a5,a4
    26f0:	c395                	beqz	a5,2714 <GPIO_PinRemapConfig+0x18a>
    26f2:	fe042783          	lw	a5,-32(s0)
    26f6:	470d                	li	a4,3
    26f8:	00f717b3          	sll	a5,a4,a5
    26fc:	fef42223          	sw	a5,-28(s0)
    2700:	fe442783          	lw	a5,-28(s0)
    2704:	fff7c793          	not	a5,a5
    2708:	fec42703          	lw	a4,-20(s0)
    270c:	8ff9                	and	a5,a5,a4
    270e:	fef42623          	sw	a5,-20(s0)
    2712:	a00d                	j	2734 <GPIO_PinRemapConfig+0x1aa>
    2714:	fdc42783          	lw	a5,-36(s0)
    2718:	83d5                	srli	a5,a5,0x15
    271a:	8b9d                	andi	a5,a5,7
    271c:	0792                	slli	a5,a5,0x4
    271e:	fe842703          	lw	a4,-24(s0)
    2722:	00f717b3          	sll	a5,a4,a5
    2726:	fff7c793          	not	a5,a5
    272a:	fec42703          	lw	a4,-20(s0)
    272e:	8ff9                	and	a5,a5,a4
    2730:	fef42623          	sw	a5,-20(s0)
    2734:	fd842783          	lw	a5,-40(s0)
    2738:	cf99                	beqz	a5,2756 <GPIO_PinRemapConfig+0x1cc>
    273a:	fdc42783          	lw	a5,-36(s0)
    273e:	83d5                	srli	a5,a5,0x15
    2740:	8b9d                	andi	a5,a5,7
    2742:	0792                	slli	a5,a5,0x4
    2744:	fe842703          	lw	a4,-24(s0)
    2748:	00f717b3          	sll	a5,a4,a5
    274c:	fec42703          	lw	a4,-20(s0)
    2750:	8fd9                	or	a5,a5,a4
    2752:	fef42623          	sw	a5,-20(s0)
    2756:	400107b7          	lui	a5,0x40010
    275a:	fec42703          	lw	a4,-20(s0)
    275e:	c3d8                	sw	a4,4(a5)
    2760:	5432                	lw	s0,44(sp)
    2762:	6145                	addi	sp,sp,48
    2764:	8082                	ret

00002766 <NVIC_PriorityGroupConfig>:
    2766:	1101                	addi	sp,sp,-32
    2768:	ce22                	sw	s0,28(sp)
    276a:	1000                	addi	s0,sp,32
    276c:	fea42623          	sw	a0,-20(s0)
    2770:	fec42703          	lw	a4,-20(s0)
    2774:	84e1a623          	sw	a4,-1972(gp) # 200000cc <NVIC_Priority_Group>
    2778:	0001                	nop
    277a:	4472                	lw	s0,28(sp)
    277c:	6105                	addi	sp,sp,32
    277e:	8082                	ret

00002780 <PWR_PVDLevelConfig>:
    2780:	7179                	addi	sp,sp,-48
    2782:	d622                	sw	s0,44(sp)
    2784:	1800                	addi	s0,sp,48
    2786:	fca42e23          	sw	a0,-36(s0)
    278a:	fe042623          	sw	zero,-20(s0)
    278e:	400077b7          	lui	a5,0x40007
    2792:	439c                	lw	a5,0(a5)
    2794:	fef42623          	sw	a5,-20(s0)
    2798:	fec42783          	lw	a5,-20(s0)
    279c:	f9f7f793          	andi	a5,a5,-97
    27a0:	fef42623          	sw	a5,-20(s0)
    27a4:	fec42703          	lw	a4,-20(s0)
    27a8:	fdc42783          	lw	a5,-36(s0)
    27ac:	8fd9                	or	a5,a5,a4
    27ae:	fef42623          	sw	a5,-20(s0)
    27b2:	400077b7          	lui	a5,0x40007
    27b6:	fec42703          	lw	a4,-20(s0)
    27ba:	c398                	sw	a4,0(a5)
    27bc:	0001                	nop
    27be:	5432                	lw	s0,44(sp)
    27c0:	6145                	addi	sp,sp,48
    27c2:	8082                	ret

000027c4 <PWR_GetFlagStatus>:
    27c4:	7179                	addi	sp,sp,-48
    27c6:	d622                	sw	s0,44(sp)
    27c8:	1800                	addi	s0,sp,48
    27ca:	fca42e23          	sw	a0,-36(s0)
    27ce:	fe042623          	sw	zero,-20(s0)
    27d2:	400077b7          	lui	a5,0x40007
    27d6:	43d8                	lw	a4,4(a5)
    27d8:	fdc42783          	lw	a5,-36(s0)
    27dc:	8ff9                	and	a5,a5,a4
    27de:	c789                	beqz	a5,27e8 <PWR_GetFlagStatus+0x24>
    27e0:	4785                	li	a5,1
    27e2:	fef42623          	sw	a5,-20(s0)
    27e6:	a019                	j	27ec <PWR_GetFlagStatus+0x28>
    27e8:	fe042623          	sw	zero,-20(s0)
    27ec:	fec42783          	lw	a5,-20(s0)
    27f0:	853e                	mv	a0,a5
    27f2:	5432                	lw	s0,44(sp)
    27f4:	6145                	addi	sp,sp,48
    27f6:	8082                	ret

000027f8 <PWR_VDD_SupplyVoltage>:
    27f8:	1101                	addi	sp,sp,-32
    27fa:	ce06                	sw	ra,28(sp)
    27fc:	cc22                	sw	s0,24(sp)
    27fe:	1000                	addi	s0,sp,32
    2800:	4785                	li	a5,1
    2802:	fef42623          	sw	a5,-20(s0)
    2806:	2115                	jal	2c2a <Delay_Init>
    2808:	4585                	li	a1,1
    280a:	10000537          	lui	a0,0x10000
    280e:	2ab1                	jal	296a <RCC_APB1PeriphClockCmd>
    2810:	06000513          	li	a0,96
    2814:	37b5                	jal	2780 <PWR_PVDLevelConfig>
    2816:	4529                	li	a0,10
    2818:	29a1                	jal	2c70 <Delay_Us>
    281a:	4511                	li	a0,4
    281c:	3765                	jal	27c4 <PWR_GetFlagStatus>
    281e:	87aa                	mv	a5,a0
    2820:	e399                	bnez	a5,2826 <PWR_VDD_SupplyVoltage+0x2e>
    2822:	fe042623          	sw	zero,-20(s0)
    2826:	4501                	li	a0,0
    2828:	3fa1                	jal	2780 <PWR_PVDLevelConfig>
    282a:	fec42783          	lw	a5,-20(s0)
    282e:	853e                	mv	a0,a5
    2830:	40f2                	lw	ra,28(sp)
    2832:	4462                	lw	s0,24(sp)
    2834:	6105                	addi	sp,sp,32
    2836:	8082                	ret

00002838 <RCC_GetClocksFreq>:
    2838:	7179                	addi	sp,sp,-48
    283a:	d622                	sw	s0,44(sp)
    283c:	1800                	addi	s0,sp,48
    283e:	fca42e23          	sw	a0,-36(s0)
    2842:	fe042623          	sw	zero,-20(s0)
    2846:	fe042423          	sw	zero,-24(s0)
    284a:	fdc42783          	lw	a5,-36(s0)
    284e:	02dc7737          	lui	a4,0x2dc7
    2852:	c0070713          	addi	a4,a4,-1024 # 2dc6c00 <_data_lma+0x2dc2704>
    2856:	c398                	sw	a4,0(a5)
    2858:	400217b7          	lui	a5,0x40021
    285c:	43dc                	lw	a5,4(a5)
    285e:	0f07f793          	andi	a5,a5,240
    2862:	fef42623          	sw	a5,-20(s0)
    2866:	fec42783          	lw	a5,-20(s0)
    286a:	8391                	srli	a5,a5,0x4
    286c:	fef42623          	sw	a5,-20(s0)
    2870:	200007b7          	lui	a5,0x20000
    2874:	01078713          	addi	a4,a5,16 # 20000010 <APBAHBPrescTable>
    2878:	fec42783          	lw	a5,-20(s0)
    287c:	97ba                	add	a5,a5,a4
    287e:	239c                	lbu	a5,0(a5)
    2880:	0ff7f793          	andi	a5,a5,255
    2884:	fef42423          	sw	a5,-24(s0)
    2888:	400217b7          	lui	a5,0x40021
    288c:	43dc                	lw	a5,4(a5)
    288e:	0807f793          	andi	a5,a5,128
    2892:	ef81                	bnez	a5,28aa <RCC_GetClocksFreq+0x72>
    2894:	fdc42783          	lw	a5,-36(s0)
    2898:	4398                	lw	a4,0(a5)
    289a:	fe842783          	lw	a5,-24(s0)
    289e:	02f75733          	divu	a4,a4,a5
    28a2:	fdc42783          	lw	a5,-36(s0)
    28a6:	c3d8                	sw	a4,4(a5)
    28a8:	a819                	j	28be <RCC_GetClocksFreq+0x86>
    28aa:	fdc42783          	lw	a5,-36(s0)
    28ae:	4398                	lw	a4,0(a5)
    28b0:	fe842783          	lw	a5,-24(s0)
    28b4:	00f75733          	srl	a4,a4,a5
    28b8:	fdc42783          	lw	a5,-36(s0)
    28bc:	c3d8                	sw	a4,4(a5)
    28be:	fdc42783          	lw	a5,-36(s0)
    28c2:	43d8                	lw	a4,4(a5)
    28c4:	fdc42783          	lw	a5,-36(s0)
    28c8:	c798                	sw	a4,8(a5)
    28ca:	fdc42783          	lw	a5,-36(s0)
    28ce:	43d8                	lw	a4,4(a5)
    28d0:	fdc42783          	lw	a5,-36(s0)
    28d4:	c7d8                	sw	a4,12(a5)
    28d6:	0001                	nop
    28d8:	5432                	lw	s0,44(sp)
    28da:	6145                	addi	sp,sp,48
    28dc:	8082                	ret

000028de <RCC_AHBPeriphClockCmd>:
    28de:	1101                	addi	sp,sp,-32
    28e0:	ce22                	sw	s0,28(sp)
    28e2:	1000                	addi	s0,sp,32
    28e4:	fea42623          	sw	a0,-20(s0)
    28e8:	feb42423          	sw	a1,-24(s0)
    28ec:	fe842783          	lw	a5,-24(s0)
    28f0:	cb99                	beqz	a5,2906 <RCC_AHBPeriphClockCmd+0x28>
    28f2:	400217b7          	lui	a5,0x40021
    28f6:	4bd4                	lw	a3,20(a5)
    28f8:	400217b7          	lui	a5,0x40021
    28fc:	fec42703          	lw	a4,-20(s0)
    2900:	8f55                	or	a4,a4,a3
    2902:	cbd8                	sw	a4,20(a5)
    2904:	a821                	j	291c <RCC_AHBPeriphClockCmd+0x3e>
    2906:	400217b7          	lui	a5,0x40021
    290a:	4bd4                	lw	a3,20(a5)
    290c:	fec42783          	lw	a5,-20(s0)
    2910:	fff7c713          	not	a4,a5
    2914:	400217b7          	lui	a5,0x40021
    2918:	8f75                	and	a4,a4,a3
    291a:	cbd8                	sw	a4,20(a5)
    291c:	0001                	nop
    291e:	4472                	lw	s0,28(sp)
    2920:	6105                	addi	sp,sp,32
    2922:	8082                	ret

00002924 <RCC_APB2PeriphClockCmd>:
    2924:	1101                	addi	sp,sp,-32
    2926:	ce22                	sw	s0,28(sp)
    2928:	1000                	addi	s0,sp,32
    292a:	fea42623          	sw	a0,-20(s0)
    292e:	feb42423          	sw	a1,-24(s0)
    2932:	fe842783          	lw	a5,-24(s0)
    2936:	cb99                	beqz	a5,294c <RCC_APB2PeriphClockCmd+0x28>
    2938:	400217b7          	lui	a5,0x40021
    293c:	4f94                	lw	a3,24(a5)
    293e:	400217b7          	lui	a5,0x40021
    2942:	fec42703          	lw	a4,-20(s0)
    2946:	8f55                	or	a4,a4,a3
    2948:	cf98                	sw	a4,24(a5)
    294a:	a821                	j	2962 <RCC_APB2PeriphClockCmd+0x3e>
    294c:	400217b7          	lui	a5,0x40021
    2950:	4f94                	lw	a3,24(a5)
    2952:	fec42783          	lw	a5,-20(s0)
    2956:	fff7c713          	not	a4,a5
    295a:	400217b7          	lui	a5,0x40021
    295e:	8f75                	and	a4,a4,a3
    2960:	cf98                	sw	a4,24(a5)
    2962:	0001                	nop
    2964:	4472                	lw	s0,28(sp)
    2966:	6105                	addi	sp,sp,32
    2968:	8082                	ret

0000296a <RCC_APB1PeriphClockCmd>:
    296a:	1101                	addi	sp,sp,-32
    296c:	ce22                	sw	s0,28(sp)
    296e:	1000                	addi	s0,sp,32
    2970:	fea42623          	sw	a0,-20(s0)
    2974:	feb42423          	sw	a1,-24(s0)
    2978:	fe842783          	lw	a5,-24(s0)
    297c:	cb99                	beqz	a5,2992 <RCC_APB1PeriphClockCmd+0x28>
    297e:	400217b7          	lui	a5,0x40021
    2982:	4fd4                	lw	a3,28(a5)
    2984:	400217b7          	lui	a5,0x40021
    2988:	fec42703          	lw	a4,-20(s0)
    298c:	8f55                	or	a4,a4,a3
    298e:	cfd8                	sw	a4,28(a5)
    2990:	a821                	j	29a8 <RCC_APB1PeriphClockCmd+0x3e>
    2992:	400217b7          	lui	a5,0x40021
    2996:	4fd4                	lw	a3,28(a5)
    2998:	fec42783          	lw	a5,-20(s0)
    299c:	fff7c713          	not	a4,a5
    29a0:	400217b7          	lui	a5,0x40021
    29a4:	8f75                	and	a4,a4,a3
    29a6:	cfd8                	sw	a4,28(a5)
    29a8:	0001                	nop
    29aa:	4472                	lw	s0,28(sp)
    29ac:	6105                	addi	sp,sp,32
    29ae:	8082                	ret

000029b0 <USART_Init>:
    29b0:	715d                	addi	sp,sp,-80
    29b2:	c686                	sw	ra,76(sp)
    29b4:	c4a2                	sw	s0,72(sp)
    29b6:	0880                	addi	s0,sp,80
    29b8:	faa42e23          	sw	a0,-68(s0)
    29bc:	fab42c23          	sw	a1,-72(s0)
    29c0:	fe042423          	sw	zero,-24(s0)
    29c4:	fe042623          	sw	zero,-20(s0)
    29c8:	fe042223          	sw	zero,-28(s0)
    29cc:	fe042023          	sw	zero,-32(s0)
    29d0:	fc042e23          	sw	zero,-36(s0)
    29d4:	fbc42783          	lw	a5,-68(s0)
    29d8:	fcf42e23          	sw	a5,-36(s0)
    29dc:	fbc42783          	lw	a5,-68(s0)
    29e0:	2b9e                	lhu	a5,16(a5)
    29e2:	07c2                	slli	a5,a5,0x10
    29e4:	83c1                	srli	a5,a5,0x10
    29e6:	fef42423          	sw	a5,-24(s0)
    29ea:	fe842703          	lw	a4,-24(s0)
    29ee:	67b5                	lui	a5,0xd
    29f0:	17fd                	addi	a5,a5,-1
    29f2:	8ff9                	and	a5,a5,a4
    29f4:	fef42423          	sw	a5,-24(s0)
    29f8:	fb842783          	lw	a5,-72(s0)
    29fc:	23fe                	lhu	a5,6(a5)
    29fe:	873e                	mv	a4,a5
    2a00:	fe842783          	lw	a5,-24(s0)
    2a04:	8fd9                	or	a5,a5,a4
    2a06:	fef42423          	sw	a5,-24(s0)
    2a0a:	fe842783          	lw	a5,-24(s0)
    2a0e:	01079713          	slli	a4,a5,0x10
    2a12:	8341                	srli	a4,a4,0x10
    2a14:	fbc42783          	lw	a5,-68(s0)
    2a18:	ab9a                	sh	a4,16(a5)
    2a1a:	fbc42783          	lw	a5,-68(s0)
    2a1e:	27de                	lhu	a5,12(a5)
    2a20:	07c2                	slli	a5,a5,0x10
    2a22:	83c1                	srli	a5,a5,0x10
    2a24:	fef42423          	sw	a5,-24(s0)
    2a28:	fe842703          	lw	a4,-24(s0)
    2a2c:	67bd                	lui	a5,0xf
    2a2e:	9f378793          	addi	a5,a5,-1549 # e9f3 <_data_lma+0xa4f7>
    2a32:	8ff9                	and	a5,a5,a4
    2a34:	fef42423          	sw	a5,-24(s0)
    2a38:	fb842783          	lw	a5,-72(s0)
    2a3c:	23da                	lhu	a4,4(a5)
    2a3e:	fb842783          	lw	a5,-72(s0)
    2a42:	279e                	lhu	a5,8(a5)
    2a44:	8fd9                	or	a5,a5,a4
    2a46:	01079713          	slli	a4,a5,0x10
    2a4a:	8341                	srli	a4,a4,0x10
    2a4c:	fb842783          	lw	a5,-72(s0)
    2a50:	27be                	lhu	a5,10(a5)
    2a52:	8fd9                	or	a5,a5,a4
    2a54:	07c2                	slli	a5,a5,0x10
    2a56:	83c1                	srli	a5,a5,0x10
    2a58:	873e                	mv	a4,a5
    2a5a:	fe842783          	lw	a5,-24(s0)
    2a5e:	8fd9                	or	a5,a5,a4
    2a60:	fef42423          	sw	a5,-24(s0)
    2a64:	fe842783          	lw	a5,-24(s0)
    2a68:	01079713          	slli	a4,a5,0x10
    2a6c:	8341                	srli	a4,a4,0x10
    2a6e:	fbc42783          	lw	a5,-68(s0)
    2a72:	a7da                	sh	a4,12(a5)
    2a74:	fbc42783          	lw	a5,-68(s0)
    2a78:	2bde                	lhu	a5,20(a5)
    2a7a:	07c2                	slli	a5,a5,0x10
    2a7c:	83c1                	srli	a5,a5,0x10
    2a7e:	fef42423          	sw	a5,-24(s0)
    2a82:	fe842703          	lw	a4,-24(s0)
    2a86:	67c1                	lui	a5,0x10
    2a88:	cff78793          	addi	a5,a5,-769 # fcff <_data_lma+0xb803>
    2a8c:	8ff9                	and	a5,a5,a4
    2a8e:	fef42423          	sw	a5,-24(s0)
    2a92:	fb842783          	lw	a5,-72(s0)
    2a96:	27de                	lhu	a5,12(a5)
    2a98:	873e                	mv	a4,a5
    2a9a:	fe842783          	lw	a5,-24(s0)
    2a9e:	8fd9                	or	a5,a5,a4
    2aa0:	fef42423          	sw	a5,-24(s0)
    2aa4:	fe842783          	lw	a5,-24(s0)
    2aa8:	01079713          	slli	a4,a5,0x10
    2aac:	8341                	srli	a4,a4,0x10
    2aae:	fbc42783          	lw	a5,-68(s0)
    2ab2:	abda                	sh	a4,20(a5)
    2ab4:	fcc40793          	addi	a5,s0,-52
    2ab8:	853e                	mv	a0,a5
    2aba:	3bbd                	jal	2838 <RCC_GetClocksFreq>
    2abc:	fdc42703          	lw	a4,-36(s0)
    2ac0:	400147b7          	lui	a5,0x40014
    2ac4:	80078793          	addi	a5,a5,-2048 # 40013800 <_eusrstack+0x2000e800>
    2ac8:	00f71763          	bne	a4,a5,2ad6 <USART_Init+0x126>
    2acc:	fd842783          	lw	a5,-40(s0)
    2ad0:	fef42623          	sw	a5,-20(s0)
    2ad4:	a029                	j	2ade <USART_Init+0x12e>
    2ad6:	fd442783          	lw	a5,-44(s0)
    2ada:	fef42623          	sw	a5,-20(s0)
    2ade:	fec42703          	lw	a4,-20(s0)
    2ae2:	87ba                	mv	a5,a4
    2ae4:	0786                	slli	a5,a5,0x1
    2ae6:	97ba                	add	a5,a5,a4
    2ae8:	078e                	slli	a5,a5,0x3
    2aea:	973e                	add	a4,a4,a5
    2aec:	fb842783          	lw	a5,-72(s0)
    2af0:	439c                	lw	a5,0(a5)
    2af2:	078a                	slli	a5,a5,0x2
    2af4:	02f757b3          	divu	a5,a4,a5
    2af8:	fef42223          	sw	a5,-28(s0)
    2afc:	fe442703          	lw	a4,-28(s0)
    2b00:	06400793          	li	a5,100
    2b04:	02f757b3          	divu	a5,a4,a5
    2b08:	0792                	slli	a5,a5,0x4
    2b0a:	fef42423          	sw	a5,-24(s0)
    2b0e:	fe842783          	lw	a5,-24(s0)
    2b12:	0047d713          	srli	a4,a5,0x4
    2b16:	06400793          	li	a5,100
    2b1a:	02f707b3          	mul	a5,a4,a5
    2b1e:	fe442703          	lw	a4,-28(s0)
    2b22:	40f707b3          	sub	a5,a4,a5
    2b26:	fef42023          	sw	a5,-32(s0)
    2b2a:	fe042783          	lw	a5,-32(s0)
    2b2e:	0792                	slli	a5,a5,0x4
    2b30:	03278713          	addi	a4,a5,50
    2b34:	06400793          	li	a5,100
    2b38:	02f757b3          	divu	a5,a4,a5
    2b3c:	8bbd                	andi	a5,a5,15
    2b3e:	fe842703          	lw	a4,-24(s0)
    2b42:	8fd9                	or	a5,a5,a4
    2b44:	fef42423          	sw	a5,-24(s0)
    2b48:	fe842783          	lw	a5,-24(s0)
    2b4c:	01079713          	slli	a4,a5,0x10
    2b50:	8341                	srli	a4,a4,0x10
    2b52:	fbc42783          	lw	a5,-68(s0)
    2b56:	a79a                	sh	a4,8(a5)
    2b58:	0001                	nop
    2b5a:	40b6                	lw	ra,76(sp)
    2b5c:	4426                	lw	s0,72(sp)
    2b5e:	6161                	addi	sp,sp,80
    2b60:	8082                	ret

00002b62 <USART_Cmd>:
    2b62:	1101                	addi	sp,sp,-32
    2b64:	ce22                	sw	s0,28(sp)
    2b66:	1000                	addi	s0,sp,32
    2b68:	fea42623          	sw	a0,-20(s0)
    2b6c:	feb42423          	sw	a1,-24(s0)
    2b70:	fe842783          	lw	a5,-24(s0)
    2b74:	c385                	beqz	a5,2b94 <USART_Cmd+0x32>
    2b76:	fec42783          	lw	a5,-20(s0)
    2b7a:	27de                	lhu	a5,12(a5)
    2b7c:	01079713          	slli	a4,a5,0x10
    2b80:	8341                	srli	a4,a4,0x10
    2b82:	6789                	lui	a5,0x2
    2b84:	8fd9                	or	a5,a5,a4
    2b86:	01079713          	slli	a4,a5,0x10
    2b8a:	8341                	srli	a4,a4,0x10
    2b8c:	fec42783          	lw	a5,-20(s0)
    2b90:	a7da                	sh	a4,12(a5)
    2b92:	a005                	j	2bb2 <USART_Cmd+0x50>
    2b94:	fec42783          	lw	a5,-20(s0)
    2b98:	27de                	lhu	a5,12(a5)
    2b9a:	01079713          	slli	a4,a5,0x10
    2b9e:	8341                	srli	a4,a4,0x10
    2ba0:	77f9                	lui	a5,0xffffe
    2ba2:	17fd                	addi	a5,a5,-1
    2ba4:	8ff9                	and	a5,a5,a4
    2ba6:	01079713          	slli	a4,a5,0x10
    2baa:	8341                	srli	a4,a4,0x10
    2bac:	fec42783          	lw	a5,-20(s0)
    2bb0:	a7da                	sh	a4,12(a5)
    2bb2:	0001                	nop
    2bb4:	4472                	lw	s0,28(sp)
    2bb6:	6105                	addi	sp,sp,32
    2bb8:	8082                	ret

00002bba <USART_SendData>:
    2bba:	1101                	addi	sp,sp,-32
    2bbc:	ce22                	sw	s0,28(sp)
    2bbe:	1000                	addi	s0,sp,32
    2bc0:	fea42623          	sw	a0,-20(s0)
    2bc4:	87ae                	mv	a5,a1
    2bc6:	fef41523          	sh	a5,-22(s0)
    2bca:	fea45783          	lhu	a5,-22(s0)
    2bce:	1ff7f793          	andi	a5,a5,511
    2bd2:	01079713          	slli	a4,a5,0x10
    2bd6:	8341                	srli	a4,a4,0x10
    2bd8:	fec42783          	lw	a5,-20(s0)
    2bdc:	a3da                	sh	a4,4(a5)
    2bde:	0001                	nop
    2be0:	4472                	lw	s0,28(sp)
    2be2:	6105                	addi	sp,sp,32
    2be4:	8082                	ret

00002be6 <USART_GetFlagStatus>:
    2be6:	7179                	addi	sp,sp,-48
    2be8:	d622                	sw	s0,44(sp)
    2bea:	1800                	addi	s0,sp,48
    2bec:	fca42e23          	sw	a0,-36(s0)
    2bf0:	87ae                	mv	a5,a1
    2bf2:	fcf41d23          	sh	a5,-38(s0)
    2bf6:	fe042623          	sw	zero,-20(s0)
    2bfa:	fdc42783          	lw	a5,-36(s0)
    2bfe:	239e                	lhu	a5,0(a5)
    2c00:	01079713          	slli	a4,a5,0x10
    2c04:	8341                	srli	a4,a4,0x10
    2c06:	fda45783          	lhu	a5,-38(s0)
    2c0a:	8ff9                	and	a5,a5,a4
    2c0c:	07c2                	slli	a5,a5,0x10
    2c0e:	83c1                	srli	a5,a5,0x10
    2c10:	c789                	beqz	a5,2c1a <USART_GetFlagStatus+0x34>
    2c12:	4785                	li	a5,1
    2c14:	fef42623          	sw	a5,-20(s0)
    2c18:	a019                	j	2c1e <USART_GetFlagStatus+0x38>
    2c1a:	fe042623          	sw	zero,-20(s0)
    2c1e:	fec42783          	lw	a5,-20(s0)
    2c22:	853e                	mv	a0,a5
    2c24:	5432                	lw	s0,44(sp)
    2c26:	6145                	addi	sp,sp,48
    2c28:	8082                	ret

00002c2a <Delay_Init>:
    2c2a:	1141                	addi	sp,sp,-16
    2c2c:	c622                	sw	s0,12(sp)
    2c2e:	0800                	addi	s0,sp,16
    2c30:	200007b7          	lui	a5,0x20000
    2c34:	0807a703          	lw	a4,128(a5) # 20000080 <SystemCoreClock>
    2c38:	007a17b7          	lui	a5,0x7a1
    2c3c:	20078793          	addi	a5,a5,512 # 7a1200 <_data_lma+0x79cd04>
    2c40:	02f757b3          	divu	a5,a4,a5
    2c44:	0ff7f713          	andi	a4,a5,255
    2c48:	84e18823          	sb	a4,-1968(gp) # 200000d0 <p_us>
    2c4c:	8501c783          	lbu	a5,-1968(gp) # 200000d0 <p_us>
    2c50:	01079713          	slli	a4,a5,0x10
    2c54:	8341                	srli	a4,a4,0x10
    2c56:	3e800793          	li	a5,1000
    2c5a:	02f707b3          	mul	a5,a4,a5
    2c5e:	01079713          	slli	a4,a5,0x10
    2c62:	8341                	srli	a4,a4,0x10
    2c64:	84e19923          	sh	a4,-1966(gp) # 200000d2 <p_ms>
    2c68:	0001                	nop
    2c6a:	4432                	lw	s0,12(sp)
    2c6c:	0141                	addi	sp,sp,16
    2c6e:	8082                	ret

00002c70 <Delay_Us>:
    2c70:	7179                	addi	sp,sp,-48
    2c72:	d622                	sw	s0,44(sp)
    2c74:	1800                	addi	s0,sp,48
    2c76:	fca42e23          	sw	a0,-36(s0)
    2c7a:	e000f737          	lui	a4,0xe000f
    2c7e:	4354                	lw	a3,4(a4)
    2c80:	e000f737          	lui	a4,0xe000f
    2c84:	9af9                	andi	a3,a3,-2
    2c86:	c354                	sw	a3,4(a4)
    2c88:	8501c703          	lbu	a4,-1968(gp) # 200000d0 <p_us>
    2c8c:	86ba                	mv	a3,a4
    2c8e:	fdc42703          	lw	a4,-36(s0)
    2c92:	02d70733          	mul	a4,a4,a3
    2c96:	fee42623          	sw	a4,-20(s0)
    2c9a:	e000f737          	lui	a4,0xe000f
    2c9e:	fec42683          	lw	a3,-20(s0)
    2ca2:	87b6                	mv	a5,a3
    2ca4:	4801                	li	a6,0
    2ca6:	cb1c                	sw	a5,16(a4)
    2ca8:	01072a23          	sw	a6,20(a4) # e000f014 <_eusrstack+0xc000a014>
    2cac:	e000f7b7          	lui	a5,0xe000f
    2cb0:	4398                	lw	a4,0(a5)
    2cb2:	e000f7b7          	lui	a5,0xe000f
    2cb6:	01076713          	ori	a4,a4,16
    2cba:	c398                	sw	a4,0(a5)
    2cbc:	e000f7b7          	lui	a5,0xe000f
    2cc0:	4398                	lw	a4,0(a5)
    2cc2:	e000f7b7          	lui	a5,0xe000f
    2cc6:	02176713          	ori	a4,a4,33
    2cca:	c398                	sw	a4,0(a5)
    2ccc:	0001                	nop
    2cce:	e000f7b7          	lui	a5,0xe000f
    2cd2:	43dc                	lw	a5,4(a5)
    2cd4:	0017f713          	andi	a4,a5,1
    2cd8:	4785                	li	a5,1
    2cda:	fef71ae3          	bne	a4,a5,2cce <Delay_Us+0x5e>
    2cde:	e000f7b7          	lui	a5,0xe000f
    2ce2:	4398                	lw	a4,0(a5)
    2ce4:	e000f7b7          	lui	a5,0xe000f
    2ce8:	9b79                	andi	a4,a4,-2
    2cea:	c398                	sw	a4,0(a5)
    2cec:	0001                	nop
    2cee:	5432                	lw	s0,44(sp)
    2cf0:	6145                	addi	sp,sp,48
    2cf2:	8082                	ret

00002cf4 <Delay_Ms>:
    2cf4:	7179                	addi	sp,sp,-48
    2cf6:	d622                	sw	s0,44(sp)
    2cf8:	1800                	addi	s0,sp,48
    2cfa:	fca42e23          	sw	a0,-36(s0)
    2cfe:	e000f737          	lui	a4,0xe000f
    2d02:	4354                	lw	a3,4(a4)
    2d04:	e000f737          	lui	a4,0xe000f
    2d08:	9af9                	andi	a3,a3,-2
    2d0a:	c354                	sw	a3,4(a4)
    2d0c:	8521d703          	lhu	a4,-1966(gp) # 200000d2 <p_ms>
    2d10:	86ba                	mv	a3,a4
    2d12:	fdc42703          	lw	a4,-36(s0)
    2d16:	02d70733          	mul	a4,a4,a3
    2d1a:	fee42623          	sw	a4,-20(s0)
    2d1e:	e000f737          	lui	a4,0xe000f
    2d22:	fec42683          	lw	a3,-20(s0)
    2d26:	87b6                	mv	a5,a3
    2d28:	4801                	li	a6,0
    2d2a:	cb1c                	sw	a5,16(a4)
    2d2c:	01072a23          	sw	a6,20(a4) # e000f014 <_eusrstack+0xc000a014>
    2d30:	e000f7b7          	lui	a5,0xe000f
    2d34:	4398                	lw	a4,0(a5)
    2d36:	e000f7b7          	lui	a5,0xe000f
    2d3a:	01076713          	ori	a4,a4,16
    2d3e:	c398                	sw	a4,0(a5)
    2d40:	e000f7b7          	lui	a5,0xe000f
    2d44:	4398                	lw	a4,0(a5)
    2d46:	e000f7b7          	lui	a5,0xe000f
    2d4a:	02176713          	ori	a4,a4,33
    2d4e:	c398                	sw	a4,0(a5)
    2d50:	0001                	nop
    2d52:	e000f7b7          	lui	a5,0xe000f
    2d56:	43dc                	lw	a5,4(a5)
    2d58:	0017f713          	andi	a4,a5,1
    2d5c:	4785                	li	a5,1
    2d5e:	fef71ae3          	bne	a4,a5,2d52 <Delay_Ms+0x5e>
    2d62:	e000f7b7          	lui	a5,0xe000f
    2d66:	4398                	lw	a4,0(a5)
    2d68:	e000f7b7          	lui	a5,0xe000f
    2d6c:	9b79                	andi	a4,a4,-2
    2d6e:	c398                	sw	a4,0(a5)
    2d70:	0001                	nop
    2d72:	5432                	lw	s0,44(sp)
    2d74:	6145                	addi	sp,sp,48
    2d76:	8082                	ret

00002d78 <USART_Printf_Init>:
    2d78:	7179                	addi	sp,sp,-48
    2d7a:	d606                	sw	ra,44(sp)
    2d7c:	d422                	sw	s0,40(sp)
    2d7e:	1800                	addi	s0,sp,48
    2d80:	fca42e23          	sw	a0,-36(s0)
    2d84:	4585                	li	a1,1
    2d86:	00020537          	lui	a0,0x20
    2d8a:	be1ff0ef          	jal	ra,296a <RCC_APB1PeriphClockCmd>
    2d8e:	4585                	li	a1,1
    2d90:	4511                	li	a0,4
    2d92:	b93ff0ef          	jal	ra,2924 <RCC_APB2PeriphClockCmd>
    2d96:	4585                	li	a1,1
    2d98:	4505                	li	a0,1
    2d9a:	b8bff0ef          	jal	ra,2924 <RCC_APB2PeriphClockCmd>
    2d9e:	4585                	li	a1,1
    2da0:	080007b7          	lui	a5,0x8000
    2da4:	20078513          	addi	a0,a5,512 # 8000200 <_data_lma+0x7ffbd04>
    2da8:	fe2ff0ef          	jal	ra,258a <GPIO_PinRemapConfig>
    2dac:	fdc42783          	lw	a5,-36(s0)
    2db0:	fef42023          	sw	a5,-32(s0)
    2db4:	fe041223          	sh	zero,-28(s0)
    2db8:	fe041323          	sh	zero,-26(s0)
    2dbc:	fe041423          	sh	zero,-24(s0)
    2dc0:	fe041623          	sh	zero,-20(s0)
    2dc4:	47a1                	li	a5,8
    2dc6:	fef41523          	sh	a5,-22(s0)
    2dca:	fe040793          	addi	a5,s0,-32
    2dce:	85be                	mv	a1,a5
    2dd0:	400047b7          	lui	a5,0x40004
    2dd4:	40078513          	addi	a0,a5,1024 # 40004400 <_eusrstack+0x1ffff400>
    2dd8:	bd9ff0ef          	jal	ra,29b0 <USART_Init>
    2ddc:	4585                	li	a1,1
    2dde:	400047b7          	lui	a5,0x40004
    2de2:	40078513          	addi	a0,a5,1024 # 40004400 <_eusrstack+0x1ffff400>
    2de6:	3bb5                	jal	2b62 <USART_Cmd>
    2de8:	0001                	nop
    2dea:	50b2                	lw	ra,44(sp)
    2dec:	5422                	lw	s0,40(sp)
    2dee:	6145                	addi	sp,sp,48
    2df0:	8082                	ret

00002df2 <_write>:
    2df2:	7179                	addi	sp,sp,-48
    2df4:	d606                	sw	ra,44(sp)
    2df6:	d422                	sw	s0,40(sp)
    2df8:	1800                	addi	s0,sp,48
    2dfa:	fca42e23          	sw	a0,-36(s0)
    2dfe:	fcb42c23          	sw	a1,-40(s0)
    2e02:	fcc42a23          	sw	a2,-44(s0)
    2e06:	fe042623          	sw	zero,-20(s0)
    2e0a:	fe042623          	sw	zero,-20(s0)
    2e0e:	a081                	j	2e4e <_write+0x5c>
    2e10:	0001                	nop
    2e12:	04000593          	li	a1,64
    2e16:	400047b7          	lui	a5,0x40004
    2e1a:	40078513          	addi	a0,a5,1024 # 40004400 <_eusrstack+0x1ffff400>
    2e1e:	33e1                	jal	2be6 <USART_GetFlagStatus>
    2e20:	87aa                	mv	a5,a0
    2e22:	dbe5                	beqz	a5,2e12 <_write+0x20>
    2e24:	fd842783          	lw	a5,-40(s0)
    2e28:	00178713          	addi	a4,a5,1
    2e2c:	fce42c23          	sw	a4,-40(s0)
    2e30:	00078783          	lb	a5,0(a5)
    2e34:	07c2                	slli	a5,a5,0x10
    2e36:	83c1                	srli	a5,a5,0x10
    2e38:	85be                	mv	a1,a5
    2e3a:	400047b7          	lui	a5,0x40004
    2e3e:	40078513          	addi	a0,a5,1024 # 40004400 <_eusrstack+0x1ffff400>
    2e42:	3ba5                	jal	2bba <USART_SendData>
    2e44:	fec42783          	lw	a5,-20(s0)
    2e48:	0785                	addi	a5,a5,1
    2e4a:	fef42623          	sw	a5,-20(s0)
    2e4e:	fec42703          	lw	a4,-20(s0)
    2e52:	fd442783          	lw	a5,-44(s0)
    2e56:	faf74de3          	blt	a4,a5,2e10 <_write+0x1e>
    2e5a:	fd442783          	lw	a5,-44(s0)
    2e5e:	853e                	mv	a0,a5
    2e60:	50b2                	lw	ra,44(sp)
    2e62:	5422                	lw	s0,40(sp)
    2e64:	6145                	addi	sp,sp,48
    2e66:	8082                	ret

00002e68 <_sbrk>:
    2e68:	1101                	addi	sp,sp,-32
    2e6a:	ce22                	sw	s0,28(sp)
    2e6c:	1000                	addi	s0,sp,32
    2e6e:	fea42623          	sw	a0,-20(s0)
    2e72:	8101a703          	lw	a4,-2032(gp) # 20000090 <curbrk.4332>
    2e76:	fec42783          	lw	a5,-20(s0)
    2e7a:	973e                	add	a4,a4,a5
    2e7c:	5c018793          	addi	a5,gp,1472 # 20000e40 <_ebss>
    2e80:	00f76d63          	bltu	a4,a5,2e9a <_sbrk+0x32>
    2e84:	8101a703          	lw	a4,-2032(gp) # 20000090 <curbrk.4332>
    2e88:	fec42783          	lw	a5,-20(s0)
    2e8c:	973e                	add	a4,a4,a5
    2e8e:	200057b7          	lui	a5,0x20005
    2e92:	80078793          	addi	a5,a5,-2048 # 20004800 <_heap_end>
    2e96:	00e7f463          	bgeu	a5,a4,2e9e <_sbrk+0x36>
    2e9a:	57fd                	li	a5,-1
    2e9c:	a839                	j	2eba <_sbrk+0x52>
    2e9e:	8101a703          	lw	a4,-2032(gp) # 20000090 <curbrk.4332>
    2ea2:	fec42783          	lw	a5,-20(s0)
    2ea6:	973e                	add	a4,a4,a5
    2ea8:	80e1a823          	sw	a4,-2032(gp) # 20000090 <curbrk.4332>
    2eac:	8101a703          	lw	a4,-2032(gp) # 20000090 <curbrk.4332>
    2eb0:	fec42783          	lw	a5,-20(s0)
    2eb4:	40f007b3          	neg	a5,a5
    2eb8:	97ba                	add	a5,a5,a4
    2eba:	853e                	mv	a0,a5
    2ebc:	4472                	lw	s0,28(sp)
    2ebe:	6105                	addi	sp,sp,32
    2ec0:	8082                	ret

00002ec2 <memcpy>:
    2ec2:	00a5c7b3          	xor	a5,a1,a0
    2ec6:	8b8d                	andi	a5,a5,3
    2ec8:	00c50733          	add	a4,a0,a2
    2ecc:	e781                	bnez	a5,2ed4 <memcpy+0x12>
    2ece:	478d                	li	a5,3
    2ed0:	00c7ed63          	bltu	a5,a2,2eea <memcpy+0x28>
    2ed4:	87aa                	mv	a5,a0
    2ed6:	08e57e63          	bgeu	a0,a4,2f72 <memcpy+0xb0>
    2eda:	2194                	lbu	a3,0(a1)
    2edc:	0785                	addi	a5,a5,1
    2ede:	0585                	addi	a1,a1,1
    2ee0:	fed78fa3          	sb	a3,-1(a5)
    2ee4:	fee7ebe3          	bltu	a5,a4,2eda <memcpy+0x18>
    2ee8:	8082                	ret
    2eea:	00357693          	andi	a3,a0,3
    2eee:	87aa                	mv	a5,a0
    2ef0:	ca89                	beqz	a3,2f02 <memcpy+0x40>
    2ef2:	2194                	lbu	a3,0(a1)
    2ef4:	0785                	addi	a5,a5,1
    2ef6:	0585                	addi	a1,a1,1
    2ef8:	fed78fa3          	sb	a3,-1(a5)
    2efc:	0037f693          	andi	a3,a5,3
    2f00:	bfc5                	j	2ef0 <memcpy+0x2e>
    2f02:	ffc77693          	andi	a3,a4,-4
    2f06:	fe068613          	addi	a2,a3,-32
    2f0a:	06c7f063          	bgeu	a5,a2,2f6a <memcpy+0xa8>
    2f0e:	0005a383          	lw	t2,0(a1)
    2f12:	0045a283          	lw	t0,4(a1)
    2f16:	0085af83          	lw	t6,8(a1)
    2f1a:	00c5af03          	lw	t5,12(a1)
    2f1e:	0105ae83          	lw	t4,16(a1)
    2f22:	0145ae03          	lw	t3,20(a1)
    2f26:	0185a303          	lw	t1,24(a1)
    2f2a:	01c5a883          	lw	a7,28(a1)
    2f2e:	02458593          	addi	a1,a1,36
    2f32:	0077a023          	sw	t2,0(a5)
    2f36:	ffc5a803          	lw	a6,-4(a1)
    2f3a:	0057a223          	sw	t0,4(a5)
    2f3e:	01f7a423          	sw	t6,8(a5)
    2f42:	01e7a623          	sw	t5,12(a5)
    2f46:	01d7a823          	sw	t4,16(a5)
    2f4a:	01c7aa23          	sw	t3,20(a5)
    2f4e:	0067ac23          	sw	t1,24(a5)
    2f52:	0117ae23          	sw	a7,28(a5)
    2f56:	02478793          	addi	a5,a5,36
    2f5a:	ff07ae23          	sw	a6,-4(a5)
    2f5e:	b775                	j	2f0a <memcpy+0x48>
    2f60:	4190                	lw	a2,0(a1)
    2f62:	0791                	addi	a5,a5,4
    2f64:	0591                	addi	a1,a1,4
    2f66:	fec7ae23          	sw	a2,-4(a5)
    2f6a:	fed7ebe3          	bltu	a5,a3,2f60 <memcpy+0x9e>
    2f6e:	f6e7e6e3          	bltu	a5,a4,2eda <memcpy+0x18>
    2f72:	8082                	ret

00002f74 <iprintf>:
    2f74:	7139                	addi	sp,sp,-64
    2f76:	da3e                	sw	a5,52(sp)
    2f78:	d22e                	sw	a1,36(sp)
    2f7a:	d432                	sw	a2,40(sp)
    2f7c:	d636                	sw	a3,44(sp)
    2f7e:	d83a                	sw	a4,48(sp)
    2f80:	dc42                	sw	a6,56(sp)
    2f82:	de46                	sw	a7,60(sp)
    2f84:	81418793          	addi	a5,gp,-2028 # 20000094 <_impure_ptr>
    2f88:	cc22                	sw	s0,24(sp)
    2f8a:	4380                	lw	s0,0(a5)
    2f8c:	ca26                	sw	s1,20(sp)
    2f8e:	ce06                	sw	ra,28(sp)
    2f90:	84aa                	mv	s1,a0
    2f92:	c409                	beqz	s0,2f9c <iprintf+0x28>
    2f94:	4c1c                	lw	a5,24(s0)
    2f96:	e399                	bnez	a5,2f9c <iprintf+0x28>
    2f98:	8522                	mv	a0,s0
    2f9a:	29ed                	jal	3494 <__sinit>
    2f9c:	440c                	lw	a1,8(s0)
    2f9e:	1054                	addi	a3,sp,36
    2fa0:	8626                	mv	a2,s1
    2fa2:	8522                	mv	a0,s0
    2fa4:	c636                	sw	a3,12(sp)
    2fa6:	127000ef          	jal	ra,38cc <_vfiprintf_r>
    2faa:	40f2                	lw	ra,28(sp)
    2fac:	4462                	lw	s0,24(sp)
    2fae:	44d2                	lw	s1,20(sp)
    2fb0:	6121                	addi	sp,sp,64
    2fb2:	8082                	ret

00002fb4 <_puts_r>:
    2fb4:	1101                	addi	sp,sp,-32
    2fb6:	ca26                	sw	s1,20(sp)
    2fb8:	c84a                	sw	s2,16(sp)
    2fba:	ce06                	sw	ra,28(sp)
    2fbc:	cc22                	sw	s0,24(sp)
    2fbe:	c64e                	sw	s3,12(sp)
    2fc0:	c452                	sw	s4,8(sp)
    2fc2:	84aa                	mv	s1,a0
    2fc4:	892e                	mv	s2,a1
    2fc6:	c501                	beqz	a0,2fce <_puts_r+0x1a>
    2fc8:	4d1c                	lw	a5,24(a0)
    2fca:	e391                	bnez	a5,2fce <_puts_r+0x1a>
    2fcc:	21e1                	jal	3494 <__sinit>
    2fce:	4c9c                	lw	a5,24(s1)
    2fd0:	4480                	lw	s0,8(s1)
    2fd2:	e399                	bnez	a5,2fd8 <_puts_r+0x24>
    2fd4:	8526                	mv	a0,s1
    2fd6:	297d                	jal	3494 <__sinit>
    2fd8:	00001797          	auipc	a5,0x1
    2fdc:	4a878793          	addi	a5,a5,1192 # 4480 <__sf_fake_stdin>
    2fe0:	02f41b63          	bne	s0,a5,3016 <_puts_r+0x62>
    2fe4:	40c0                	lw	s0,4(s1)
    2fe6:	245e                	lhu	a5,12(s0)
    2fe8:	8ba1                	andi	a5,a5,8
    2fea:	c7b1                	beqz	a5,3036 <_puts_r+0x82>
    2fec:	481c                	lw	a5,16(s0)
    2fee:	c7a1                	beqz	a5,3036 <_puts_r+0x82>
    2ff0:	59fd                	li	s3,-1
    2ff2:	4a29                	li	s4,10
    2ff4:	441c                	lw	a5,8(s0)
    2ff6:	00094583          	lbu	a1,0(s2)
    2ffa:	17fd                	addi	a5,a5,-1
    2ffc:	e9b1                	bnez	a1,3050 <_puts_r+0x9c>
    2ffe:	c41c                	sw	a5,8(s0)
    3000:	0607dd63          	bgez	a5,307a <_puts_r+0xc6>
    3004:	8622                	mv	a2,s0
    3006:	45a9                	li	a1,10
    3008:	8526                	mv	a0,s1
    300a:	2061                	jal	3092 <__swbuf_r>
    300c:	57fd                	li	a5,-1
    300e:	02f50863          	beq	a0,a5,303e <_puts_r+0x8a>
    3012:	4529                	li	a0,10
    3014:	a035                	j	3040 <_puts_r+0x8c>
    3016:	00001797          	auipc	a5,0x1
    301a:	48a78793          	addi	a5,a5,1162 # 44a0 <__sf_fake_stdout>
    301e:	00f41463          	bne	s0,a5,3026 <_puts_r+0x72>
    3022:	4480                	lw	s0,8(s1)
    3024:	b7c9                	j	2fe6 <_puts_r+0x32>
    3026:	00001797          	auipc	a5,0x1
    302a:	43a78793          	addi	a5,a5,1082 # 4460 <__sf_fake_stderr>
    302e:	faf41ce3          	bne	s0,a5,2fe6 <_puts_r+0x32>
    3032:	44c0                	lw	s0,12(s1)
    3034:	bf4d                	j	2fe6 <_puts_r+0x32>
    3036:	85a2                	mv	a1,s0
    3038:	8526                	mv	a0,s1
    303a:	2a11                	jal	314e <__swsetup_r>
    303c:	d955                	beqz	a0,2ff0 <_puts_r+0x3c>
    303e:	557d                	li	a0,-1
    3040:	40f2                	lw	ra,28(sp)
    3042:	4462                	lw	s0,24(sp)
    3044:	44d2                	lw	s1,20(sp)
    3046:	4942                	lw	s2,16(sp)
    3048:	49b2                	lw	s3,12(sp)
    304a:	4a22                	lw	s4,8(sp)
    304c:	6105                	addi	sp,sp,32
    304e:	8082                	ret
    3050:	c41c                	sw	a5,8(s0)
    3052:	0905                	addi	s2,s2,1
    3054:	0007d763          	bgez	a5,3062 <_puts_r+0xae>
    3058:	4c18                	lw	a4,24(s0)
    305a:	00e7ca63          	blt	a5,a4,306e <_puts_r+0xba>
    305e:	01458863          	beq	a1,s4,306e <_puts_r+0xba>
    3062:	401c                	lw	a5,0(s0)
    3064:	00178713          	addi	a4,a5,1
    3068:	c018                	sw	a4,0(s0)
    306a:	a38c                	sb	a1,0(a5)
    306c:	b761                	j	2ff4 <_puts_r+0x40>
    306e:	8622                	mv	a2,s0
    3070:	8526                	mv	a0,s1
    3072:	2005                	jal	3092 <__swbuf_r>
    3074:	f93510e3          	bne	a0,s3,2ff4 <_puts_r+0x40>
    3078:	b7d9                	j	303e <_puts_r+0x8a>
    307a:	401c                	lw	a5,0(s0)
    307c:	00178713          	addi	a4,a5,1
    3080:	c018                	sw	a4,0(s0)
    3082:	4729                	li	a4,10
    3084:	a398                	sb	a4,0(a5)
    3086:	b771                	j	3012 <_puts_r+0x5e>

00003088 <puts>:
    3088:	81418793          	addi	a5,gp,-2028 # 20000094 <_impure_ptr>
    308c:	85aa                	mv	a1,a0
    308e:	4388                	lw	a0,0(a5)
    3090:	b715                	j	2fb4 <_puts_r>

00003092 <__swbuf_r>:
    3092:	1101                	addi	sp,sp,-32
    3094:	cc22                	sw	s0,24(sp)
    3096:	ca26                	sw	s1,20(sp)
    3098:	c84a                	sw	s2,16(sp)
    309a:	ce06                	sw	ra,28(sp)
    309c:	c64e                	sw	s3,12(sp)
    309e:	84aa                	mv	s1,a0
    30a0:	892e                	mv	s2,a1
    30a2:	8432                	mv	s0,a2
    30a4:	c501                	beqz	a0,30ac <__swbuf_r+0x1a>
    30a6:	4d1c                	lw	a5,24(a0)
    30a8:	e391                	bnez	a5,30ac <__swbuf_r+0x1a>
    30aa:	26ed                	jal	3494 <__sinit>
    30ac:	00001797          	auipc	a5,0x1
    30b0:	3d478793          	addi	a5,a5,980 # 4480 <__sf_fake_stdin>
    30b4:	06f41763          	bne	s0,a5,3122 <__swbuf_r+0x90>
    30b8:	40c0                	lw	s0,4(s1)
    30ba:	4c1c                	lw	a5,24(s0)
    30bc:	c41c                	sw	a5,8(s0)
    30be:	245e                	lhu	a5,12(s0)
    30c0:	8ba1                	andi	a5,a5,8
    30c2:	c3c1                	beqz	a5,3142 <__swbuf_r+0xb0>
    30c4:	481c                	lw	a5,16(s0)
    30c6:	cfb5                	beqz	a5,3142 <__swbuf_r+0xb0>
    30c8:	481c                	lw	a5,16(s0)
    30ca:	4008                	lw	a0,0(s0)
    30cc:	0ff97993          	andi	s3,s2,255
    30d0:	0ff97913          	andi	s2,s2,255
    30d4:	8d1d                	sub	a0,a0,a5
    30d6:	485c                	lw	a5,20(s0)
    30d8:	00f54663          	blt	a0,a5,30e4 <__swbuf_r+0x52>
    30dc:	85a2                	mv	a1,s0
    30de:	8526                	mv	a0,s1
    30e0:	2c69                	jal	337a <_fflush_r>
    30e2:	e525                	bnez	a0,314a <__swbuf_r+0xb8>
    30e4:	441c                	lw	a5,8(s0)
    30e6:	0505                	addi	a0,a0,1
    30e8:	17fd                	addi	a5,a5,-1
    30ea:	c41c                	sw	a5,8(s0)
    30ec:	401c                	lw	a5,0(s0)
    30ee:	00178713          	addi	a4,a5,1
    30f2:	c018                	sw	a4,0(s0)
    30f4:	01378023          	sb	s3,0(a5)
    30f8:	485c                	lw	a5,20(s0)
    30fa:	00a78863          	beq	a5,a0,310a <__swbuf_r+0x78>
    30fe:	245e                	lhu	a5,12(s0)
    3100:	8b85                	andi	a5,a5,1
    3102:	cb81                	beqz	a5,3112 <__swbuf_r+0x80>
    3104:	47a9                	li	a5,10
    3106:	00f91663          	bne	s2,a5,3112 <__swbuf_r+0x80>
    310a:	85a2                	mv	a1,s0
    310c:	8526                	mv	a0,s1
    310e:	24b5                	jal	337a <_fflush_r>
    3110:	ed0d                	bnez	a0,314a <__swbuf_r+0xb8>
    3112:	40f2                	lw	ra,28(sp)
    3114:	4462                	lw	s0,24(sp)
    3116:	854a                	mv	a0,s2
    3118:	44d2                	lw	s1,20(sp)
    311a:	4942                	lw	s2,16(sp)
    311c:	49b2                	lw	s3,12(sp)
    311e:	6105                	addi	sp,sp,32
    3120:	8082                	ret
    3122:	00001797          	auipc	a5,0x1
    3126:	37e78793          	addi	a5,a5,894 # 44a0 <__sf_fake_stdout>
    312a:	00f41463          	bne	s0,a5,3132 <__swbuf_r+0xa0>
    312e:	4480                	lw	s0,8(s1)
    3130:	b769                	j	30ba <__swbuf_r+0x28>
    3132:	00001797          	auipc	a5,0x1
    3136:	32e78793          	addi	a5,a5,814 # 4460 <__sf_fake_stderr>
    313a:	f8f410e3          	bne	s0,a5,30ba <__swbuf_r+0x28>
    313e:	44c0                	lw	s0,12(s1)
    3140:	bfad                	j	30ba <__swbuf_r+0x28>
    3142:	85a2                	mv	a1,s0
    3144:	8526                	mv	a0,s1
    3146:	2021                	jal	314e <__swsetup_r>
    3148:	d141                	beqz	a0,30c8 <__swbuf_r+0x36>
    314a:	597d                	li	s2,-1
    314c:	b7d9                	j	3112 <__swbuf_r+0x80>

0000314e <__swsetup_r>:
    314e:	1141                	addi	sp,sp,-16
    3150:	81418793          	addi	a5,gp,-2028 # 20000094 <_impure_ptr>
    3154:	c226                	sw	s1,4(sp)
    3156:	4384                	lw	s1,0(a5)
    3158:	c422                	sw	s0,8(sp)
    315a:	c04a                	sw	s2,0(sp)
    315c:	c606                	sw	ra,12(sp)
    315e:	892a                	mv	s2,a0
    3160:	842e                	mv	s0,a1
    3162:	c489                	beqz	s1,316c <__swsetup_r+0x1e>
    3164:	4c9c                	lw	a5,24(s1)
    3166:	e399                	bnez	a5,316c <__swsetup_r+0x1e>
    3168:	8526                	mv	a0,s1
    316a:	262d                	jal	3494 <__sinit>
    316c:	00001797          	auipc	a5,0x1
    3170:	31478793          	addi	a5,a5,788 # 4480 <__sf_fake_stdin>
    3174:	02f41b63          	bne	s0,a5,31aa <__swsetup_r+0x5c>
    3178:	40c0                	lw	s0,4(s1)
    317a:	00c41703          	lh	a4,12(s0)
    317e:	01071793          	slli	a5,a4,0x10
    3182:	83c1                	srli	a5,a5,0x10
    3184:	0087f693          	andi	a3,a5,8
    3188:	eaad                	bnez	a3,31fa <__swsetup_r+0xac>
    318a:	0107f693          	andi	a3,a5,16
    318e:	ee95                	bnez	a3,31ca <__swsetup_r+0x7c>
    3190:	47a5                	li	a5,9
    3192:	00f92023          	sw	a5,0(s2)
    3196:	04076713          	ori	a4,a4,64
    319a:	a45a                	sh	a4,12(s0)
    319c:	557d                	li	a0,-1
    319e:	40b2                	lw	ra,12(sp)
    31a0:	4422                	lw	s0,8(sp)
    31a2:	4492                	lw	s1,4(sp)
    31a4:	4902                	lw	s2,0(sp)
    31a6:	0141                	addi	sp,sp,16
    31a8:	8082                	ret
    31aa:	00001797          	auipc	a5,0x1
    31ae:	2f678793          	addi	a5,a5,758 # 44a0 <__sf_fake_stdout>
    31b2:	00f41463          	bne	s0,a5,31ba <__swsetup_r+0x6c>
    31b6:	4480                	lw	s0,8(s1)
    31b8:	b7c9                	j	317a <__swsetup_r+0x2c>
    31ba:	00001797          	auipc	a5,0x1
    31be:	2a678793          	addi	a5,a5,678 # 4460 <__sf_fake_stderr>
    31c2:	faf41ce3          	bne	s0,a5,317a <__swsetup_r+0x2c>
    31c6:	44c0                	lw	s0,12(s1)
    31c8:	bf4d                	j	317a <__swsetup_r+0x2c>
    31ca:	8b91                	andi	a5,a5,4
    31cc:	c39d                	beqz	a5,31f2 <__swsetup_r+0xa4>
    31ce:	584c                	lw	a1,52(s0)
    31d0:	c989                	beqz	a1,31e2 <__swsetup_r+0x94>
    31d2:	04440793          	addi	a5,s0,68
    31d6:	00f58463          	beq	a1,a5,31de <__swsetup_r+0x90>
    31da:	854a                	mv	a0,s2
    31dc:	2331                	jal	36e8 <_free_r>
    31de:	02042a23          	sw	zero,52(s0)
    31e2:	245e                	lhu	a5,12(s0)
    31e4:	00042223          	sw	zero,4(s0)
    31e8:	fdb7f793          	andi	a5,a5,-37
    31ec:	a45e                	sh	a5,12(s0)
    31ee:	481c                	lw	a5,16(s0)
    31f0:	c01c                	sw	a5,0(s0)
    31f2:	245e                	lhu	a5,12(s0)
    31f4:	0087e793          	ori	a5,a5,8
    31f8:	a45e                	sh	a5,12(s0)
    31fa:	481c                	lw	a5,16(s0)
    31fc:	eb99                	bnez	a5,3212 <__swsetup_r+0xc4>
    31fe:	245e                	lhu	a5,12(s0)
    3200:	20000713          	li	a4,512
    3204:	2807f793          	andi	a5,a5,640
    3208:	00e78563          	beq	a5,a4,3212 <__swsetup_r+0xc4>
    320c:	85a2                	mv	a1,s0
    320e:	854a                	mv	a0,s2
    3210:	21a1                	jal	3658 <__smakebuf_r>
    3212:	245e                	lhu	a5,12(s0)
    3214:	0017f713          	andi	a4,a5,1
    3218:	c31d                	beqz	a4,323e <__swsetup_r+0xf0>
    321a:	485c                	lw	a5,20(s0)
    321c:	00042423          	sw	zero,8(s0)
    3220:	40f007b3          	neg	a5,a5
    3224:	cc1c                	sw	a5,24(s0)
    3226:	481c                	lw	a5,16(s0)
    3228:	4501                	li	a0,0
    322a:	fbb5                	bnez	a5,319e <__swsetup_r+0x50>
    322c:	00c41783          	lh	a5,12(s0)
    3230:	0807f713          	andi	a4,a5,128
    3234:	d72d                	beqz	a4,319e <__swsetup_r+0x50>
    3236:	0407e793          	ori	a5,a5,64
    323a:	a45e                	sh	a5,12(s0)
    323c:	b785                	j	319c <__swsetup_r+0x4e>
    323e:	8b89                	andi	a5,a5,2
    3240:	4701                	li	a4,0
    3242:	e391                	bnez	a5,3246 <__swsetup_r+0xf8>
    3244:	4858                	lw	a4,20(s0)
    3246:	c418                	sw	a4,8(s0)
    3248:	bff9                	j	3226 <__swsetup_r+0xd8>

0000324a <__sflush_r>:
    324a:	25de                	lhu	a5,12(a1)
    324c:	1101                	addi	sp,sp,-32
    324e:	cc22                	sw	s0,24(sp)
    3250:	ca26                	sw	s1,20(sp)
    3252:	ce06                	sw	ra,28(sp)
    3254:	c84a                	sw	s2,16(sp)
    3256:	c64e                	sw	s3,12(sp)
    3258:	0087f713          	andi	a4,a5,8
    325c:	84aa                	mv	s1,a0
    325e:	842e                	mv	s0,a1
    3260:	eb79                	bnez	a4,3336 <__sflush_r+0xec>
    3262:	41d8                	lw	a4,4(a1)
    3264:	00e04d63          	bgtz	a4,327e <__sflush_r+0x34>
    3268:	41b8                	lw	a4,64(a1)
    326a:	00e04a63          	bgtz	a4,327e <__sflush_r+0x34>
    326e:	4501                	li	a0,0
    3270:	40f2                	lw	ra,28(sp)
    3272:	4462                	lw	s0,24(sp)
    3274:	44d2                	lw	s1,20(sp)
    3276:	4942                	lw	s2,16(sp)
    3278:	49b2                	lw	s3,12(sp)
    327a:	6105                	addi	sp,sp,32
    327c:	8082                	ret
    327e:	5458                	lw	a4,44(s0)
    3280:	d77d                	beqz	a4,326e <__sflush_r+0x24>
    3282:	0004a903          	lw	s2,0(s1)
    3286:	01379693          	slli	a3,a5,0x13
    328a:	0004a023          	sw	zero,0(s1)
    328e:	0606db63          	bgez	a3,3304 <__sflush_r+0xba>
    3292:	4870                	lw	a2,84(s0)
    3294:	245e                	lhu	a5,12(s0)
    3296:	8b91                	andi	a5,a5,4
    3298:	c799                	beqz	a5,32a6 <__sflush_r+0x5c>
    329a:	405c                	lw	a5,4(s0)
    329c:	8e1d                	sub	a2,a2,a5
    329e:	585c                	lw	a5,52(s0)
    32a0:	c399                	beqz	a5,32a6 <__sflush_r+0x5c>
    32a2:	403c                	lw	a5,64(s0)
    32a4:	8e1d                	sub	a2,a2,a5
    32a6:	545c                	lw	a5,44(s0)
    32a8:	500c                	lw	a1,32(s0)
    32aa:	4681                	li	a3,0
    32ac:	8526                	mv	a0,s1
    32ae:	9782                	jalr	a5
    32b0:	57fd                	li	a5,-1
    32b2:	245a                	lhu	a4,12(s0)
    32b4:	00f51d63          	bne	a0,a5,32ce <__sflush_r+0x84>
    32b8:	4094                	lw	a3,0(s1)
    32ba:	47f5                	li	a5,29
    32bc:	06d7e863          	bltu	a5,a3,332c <__sflush_r+0xe2>
    32c0:	204007b7          	lui	a5,0x20400
    32c4:	0785                	addi	a5,a5,1
    32c6:	00d7d7b3          	srl	a5,a5,a3
    32ca:	8b85                	andi	a5,a5,1
    32cc:	c3a5                	beqz	a5,332c <__sflush_r+0xe2>
    32ce:	481c                	lw	a5,16(s0)
    32d0:	00042223          	sw	zero,4(s0)
    32d4:	c01c                	sw	a5,0(s0)
    32d6:	01371793          	slli	a5,a4,0x13
    32da:	0007d863          	bgez	a5,32ea <__sflush_r+0xa0>
    32de:	57fd                	li	a5,-1
    32e0:	00f51463          	bne	a0,a5,32e8 <__sflush_r+0x9e>
    32e4:	409c                	lw	a5,0(s1)
    32e6:	e391                	bnez	a5,32ea <__sflush_r+0xa0>
    32e8:	c868                	sw	a0,84(s0)
    32ea:	584c                	lw	a1,52(s0)
    32ec:	0124a023          	sw	s2,0(s1)
    32f0:	ddbd                	beqz	a1,326e <__sflush_r+0x24>
    32f2:	04440793          	addi	a5,s0,68
    32f6:	00f58463          	beq	a1,a5,32fe <__sflush_r+0xb4>
    32fa:	8526                	mv	a0,s1
    32fc:	26f5                	jal	36e8 <_free_r>
    32fe:	02042a23          	sw	zero,52(s0)
    3302:	b7b5                	j	326e <__sflush_r+0x24>
    3304:	500c                	lw	a1,32(s0)
    3306:	4601                	li	a2,0
    3308:	4685                	li	a3,1
    330a:	8526                	mv	a0,s1
    330c:	9702                	jalr	a4
    330e:	57fd                	li	a5,-1
    3310:	862a                	mv	a2,a0
    3312:	f8f511e3          	bne	a0,a5,3294 <__sflush_r+0x4a>
    3316:	409c                	lw	a5,0(s1)
    3318:	dfb5                	beqz	a5,3294 <__sflush_r+0x4a>
    331a:	4775                	li	a4,29
    331c:	00e78563          	beq	a5,a4,3326 <__sflush_r+0xdc>
    3320:	4759                	li	a4,22
    3322:	04e79363          	bne	a5,a4,3368 <__sflush_r+0x11e>
    3326:	0124a023          	sw	s2,0(s1)
    332a:	b791                	j	326e <__sflush_r+0x24>
    332c:	04076713          	ori	a4,a4,64
    3330:	a45a                	sh	a4,12(s0)
    3332:	557d                	li	a0,-1
    3334:	bf35                	j	3270 <__sflush_r+0x26>
    3336:	0105a983          	lw	s3,16(a1)
    333a:	f2098ae3          	beqz	s3,326e <__sflush_r+0x24>
    333e:	0005a903          	lw	s2,0(a1)
    3342:	8b8d                	andi	a5,a5,3
    3344:	0135a023          	sw	s3,0(a1)
    3348:	41390933          	sub	s2,s2,s3
    334c:	4701                	li	a4,0
    334e:	e391                	bnez	a5,3352 <__sflush_r+0x108>
    3350:	49d8                	lw	a4,20(a1)
    3352:	c418                	sw	a4,8(s0)
    3354:	f1205de3          	blez	s2,326e <__sflush_r+0x24>
    3358:	541c                	lw	a5,40(s0)
    335a:	500c                	lw	a1,32(s0)
    335c:	86ca                	mv	a3,s2
    335e:	864e                	mv	a2,s3
    3360:	8526                	mv	a0,s1
    3362:	9782                	jalr	a5
    3364:	00a04763          	bgtz	a0,3372 <__sflush_r+0x128>
    3368:	245e                	lhu	a5,12(s0)
    336a:	0407e793          	ori	a5,a5,64
    336e:	a45e                	sh	a5,12(s0)
    3370:	b7c9                	j	3332 <__sflush_r+0xe8>
    3372:	99aa                	add	s3,s3,a0
    3374:	40a90933          	sub	s2,s2,a0
    3378:	bff1                	j	3354 <__sflush_r+0x10a>

0000337a <_fflush_r>:
    337a:	499c                	lw	a5,16(a1)
    337c:	cfb9                	beqz	a5,33da <_fflush_r+0x60>
    337e:	1101                	addi	sp,sp,-32
    3380:	cc22                	sw	s0,24(sp)
    3382:	ce06                	sw	ra,28(sp)
    3384:	842a                	mv	s0,a0
    3386:	c511                	beqz	a0,3392 <_fflush_r+0x18>
    3388:	4d1c                	lw	a5,24(a0)
    338a:	e781                	bnez	a5,3392 <_fflush_r+0x18>
    338c:	c62e                	sw	a1,12(sp)
    338e:	2219                	jal	3494 <__sinit>
    3390:	45b2                	lw	a1,12(sp)
    3392:	00001797          	auipc	a5,0x1
    3396:	0ee78793          	addi	a5,a5,238 # 4480 <__sf_fake_stdin>
    339a:	00f59b63          	bne	a1,a5,33b0 <_fflush_r+0x36>
    339e:	404c                	lw	a1,4(s0)
    33a0:	00c59783          	lh	a5,12(a1)
    33a4:	c795                	beqz	a5,33d0 <_fflush_r+0x56>
    33a6:	8522                	mv	a0,s0
    33a8:	4462                	lw	s0,24(sp)
    33aa:	40f2                	lw	ra,28(sp)
    33ac:	6105                	addi	sp,sp,32
    33ae:	bd71                	j	324a <__sflush_r>
    33b0:	00001797          	auipc	a5,0x1
    33b4:	0f078793          	addi	a5,a5,240 # 44a0 <__sf_fake_stdout>
    33b8:	00f59463          	bne	a1,a5,33c0 <_fflush_r+0x46>
    33bc:	440c                	lw	a1,8(s0)
    33be:	b7cd                	j	33a0 <_fflush_r+0x26>
    33c0:	00001797          	auipc	a5,0x1
    33c4:	0a078793          	addi	a5,a5,160 # 4460 <__sf_fake_stderr>
    33c8:	fcf59ce3          	bne	a1,a5,33a0 <_fflush_r+0x26>
    33cc:	444c                	lw	a1,12(s0)
    33ce:	bfc9                	j	33a0 <_fflush_r+0x26>
    33d0:	40f2                	lw	ra,28(sp)
    33d2:	4462                	lw	s0,24(sp)
    33d4:	4501                	li	a0,0
    33d6:	6105                	addi	sp,sp,32
    33d8:	8082                	ret
    33da:	4501                	li	a0,0
    33dc:	8082                	ret

000033de <std>:
    33de:	1141                	addi	sp,sp,-16
    33e0:	c422                	sw	s0,8(sp)
    33e2:	c606                	sw	ra,12(sp)
    33e4:	842a                	mv	s0,a0
    33e6:	a54e                	sh	a1,12(a0)
    33e8:	a572                	sh	a2,14(a0)
    33ea:	00052023          	sw	zero,0(a0) # 20000 <_data_lma+0x1bb04>
    33ee:	00052223          	sw	zero,4(a0)
    33f2:	00052423          	sw	zero,8(a0)
    33f6:	06052223          	sw	zero,100(a0)
    33fa:	00052823          	sw	zero,16(a0)
    33fe:	00052a23          	sw	zero,20(a0)
    3402:	00052c23          	sw	zero,24(a0)
    3406:	4621                	li	a2,8
    3408:	4581                	li	a1,0
    340a:	05c50513          	addi	a0,a0,92
    340e:	cf3fc0ef          	jal	ra,100 <memset>
    3412:	00001797          	auipc	a5,0x1
    3416:	b1878793          	addi	a5,a5,-1256 # 3f2a <__sread>
    341a:	d05c                	sw	a5,36(s0)
    341c:	00001797          	auipc	a5,0x1
    3420:	b3a78793          	addi	a5,a5,-1222 # 3f56 <__swrite>
    3424:	d41c                	sw	a5,40(s0)
    3426:	00001797          	auipc	a5,0x1
    342a:	b7878793          	addi	a5,a5,-1160 # 3f9e <__sseek>
    342e:	d45c                	sw	a5,44(s0)
    3430:	00001797          	auipc	a5,0x1
    3434:	b9e78793          	addi	a5,a5,-1122 # 3fce <__sclose>
    3438:	d000                	sw	s0,32(s0)
    343a:	d81c                	sw	a5,48(s0)
    343c:	40b2                	lw	ra,12(sp)
    343e:	4422                	lw	s0,8(sp)
    3440:	0141                	addi	sp,sp,16
    3442:	8082                	ret

00003444 <_cleanup_r>:
    3444:	00000597          	auipc	a1,0x0
    3448:	f3658593          	addi	a1,a1,-202 # 337a <_fflush_r>
    344c:	a2a9                	j	3596 <_fwalk_reent>

0000344e <__sfmoreglue>:
    344e:	1141                	addi	sp,sp,-16
    3450:	c226                	sw	s1,4(sp)
    3452:	06800613          	li	a2,104
    3456:	fff58493          	addi	s1,a1,-1
    345a:	02c484b3          	mul	s1,s1,a2
    345e:	c04a                	sw	s2,0(sp)
    3460:	892e                	mv	s2,a1
    3462:	c422                	sw	s0,8(sp)
    3464:	c606                	sw	ra,12(sp)
    3466:	07448593          	addi	a1,s1,116
    346a:	261d                	jal	3790 <_malloc_r>
    346c:	842a                	mv	s0,a0
    346e:	cd01                	beqz	a0,3486 <__sfmoreglue+0x38>
    3470:	00052023          	sw	zero,0(a0)
    3474:	01252223          	sw	s2,4(a0)
    3478:	0531                	addi	a0,a0,12
    347a:	c408                	sw	a0,8(s0)
    347c:	06848613          	addi	a2,s1,104
    3480:	4581                	li	a1,0
    3482:	c7ffc0ef          	jal	ra,100 <memset>
    3486:	8522                	mv	a0,s0
    3488:	40b2                	lw	ra,12(sp)
    348a:	4422                	lw	s0,8(sp)
    348c:	4492                	lw	s1,4(sp)
    348e:	4902                	lw	s2,0(sp)
    3490:	0141                	addi	sp,sp,16
    3492:	8082                	ret

00003494 <__sinit>:
    3494:	4d1c                	lw	a5,24(a0)
    3496:	e3ad                	bnez	a5,34f8 <__sinit+0x64>
    3498:	1141                	addi	sp,sp,-16
    349a:	c606                	sw	ra,12(sp)
    349c:	c422                	sw	s0,8(sp)
    349e:	00000797          	auipc	a5,0x0
    34a2:	fa678793          	addi	a5,a5,-90 # 3444 <_cleanup_r>
    34a6:	d51c                	sw	a5,40(a0)
    34a8:	81c18793          	addi	a5,gp,-2020 # 2000009c <_global_impure_ptr>
    34ac:	439c                	lw	a5,0(a5)
    34ae:	04052423          	sw	zero,72(a0)
    34b2:	04052623          	sw	zero,76(a0)
    34b6:	04052823          	sw	zero,80(a0)
    34ba:	00f51463          	bne	a0,a5,34c2 <__sinit+0x2e>
    34be:	4785                	li	a5,1
    34c0:	cd1c                	sw	a5,24(a0)
    34c2:	842a                	mv	s0,a0
    34c4:	281d                	jal	34fa <__sfp>
    34c6:	c048                	sw	a0,4(s0)
    34c8:	8522                	mv	a0,s0
    34ca:	2805                	jal	34fa <__sfp>
    34cc:	c408                	sw	a0,8(s0)
    34ce:	8522                	mv	a0,s0
    34d0:	202d                	jal	34fa <__sfp>
    34d2:	c448                	sw	a0,12(s0)
    34d4:	4048                	lw	a0,4(s0)
    34d6:	4601                	li	a2,0
    34d8:	4591                	li	a1,4
    34da:	3711                	jal	33de <std>
    34dc:	4408                	lw	a0,8(s0)
    34de:	4605                	li	a2,1
    34e0:	45a5                	li	a1,9
    34e2:	3df5                	jal	33de <std>
    34e4:	4448                	lw	a0,12(s0)
    34e6:	4609                	li	a2,2
    34e8:	45c9                	li	a1,18
    34ea:	3dd5                	jal	33de <std>
    34ec:	4785                	li	a5,1
    34ee:	cc1c                	sw	a5,24(s0)
    34f0:	40b2                	lw	ra,12(sp)
    34f2:	4422                	lw	s0,8(sp)
    34f4:	0141                	addi	sp,sp,16
    34f6:	8082                	ret
    34f8:	8082                	ret

000034fa <__sfp>:
    34fa:	1141                	addi	sp,sp,-16
    34fc:	81c18793          	addi	a5,gp,-2020 # 2000009c <_global_impure_ptr>
    3500:	c226                	sw	s1,4(sp)
    3502:	4384                	lw	s1,0(a5)
    3504:	c04a                	sw	s2,0(sp)
    3506:	c606                	sw	ra,12(sp)
    3508:	4c9c                	lw	a5,24(s1)
    350a:	c422                	sw	s0,8(sp)
    350c:	892a                	mv	s2,a0
    350e:	e399                	bnez	a5,3514 <__sfp+0x1a>
    3510:	8526                	mv	a0,s1
    3512:	3749                	jal	3494 <__sinit>
    3514:	04848493          	addi	s1,s1,72
    3518:	4480                	lw	s0,8(s1)
    351a:	40dc                	lw	a5,4(s1)
    351c:	17fd                	addi	a5,a5,-1
    351e:	0007d663          	bgez	a5,352a <__sfp+0x30>
    3522:	409c                	lw	a5,0(s1)
    3524:	cfb9                	beqz	a5,3582 <__sfp+0x88>
    3526:	4084                	lw	s1,0(s1)
    3528:	bfc5                	j	3518 <__sfp+0x1e>
    352a:	00c41703          	lh	a4,12(s0)
    352e:	e739                	bnez	a4,357c <__sfp+0x82>
    3530:	77c1                	lui	a5,0xffff0
    3532:	0785                	addi	a5,a5,1
    3534:	06042223          	sw	zero,100(s0)
    3538:	00042023          	sw	zero,0(s0)
    353c:	00042223          	sw	zero,4(s0)
    3540:	00042423          	sw	zero,8(s0)
    3544:	c45c                	sw	a5,12(s0)
    3546:	00042823          	sw	zero,16(s0)
    354a:	00042a23          	sw	zero,20(s0)
    354e:	00042c23          	sw	zero,24(s0)
    3552:	4621                	li	a2,8
    3554:	4581                	li	a1,0
    3556:	05c40513          	addi	a0,s0,92
    355a:	ba7fc0ef          	jal	ra,100 <memset>
    355e:	02042a23          	sw	zero,52(s0)
    3562:	02042c23          	sw	zero,56(s0)
    3566:	04042423          	sw	zero,72(s0)
    356a:	04042623          	sw	zero,76(s0)
    356e:	8522                	mv	a0,s0
    3570:	40b2                	lw	ra,12(sp)
    3572:	4422                	lw	s0,8(sp)
    3574:	4492                	lw	s1,4(sp)
    3576:	4902                	lw	s2,0(sp)
    3578:	0141                	addi	sp,sp,16
    357a:	8082                	ret
    357c:	06840413          	addi	s0,s0,104
    3580:	bf71                	j	351c <__sfp+0x22>
    3582:	4591                	li	a1,4
    3584:	854a                	mv	a0,s2
    3586:	35e1                	jal	344e <__sfmoreglue>
    3588:	c088                	sw	a0,0(s1)
    358a:	fd51                	bnez	a0,3526 <__sfp+0x2c>
    358c:	47b1                	li	a5,12
    358e:	00f92023          	sw	a5,0(s2)
    3592:	4401                	li	s0,0
    3594:	bfe9                	j	356e <__sfp+0x74>

00003596 <_fwalk_reent>:
    3596:	7179                	addi	sp,sp,-48
    3598:	d422                	sw	s0,40(sp)
    359a:	d04a                	sw	s2,32(sp)
    359c:	cc52                	sw	s4,24(sp)
    359e:	ca56                	sw	s5,20(sp)
    35a0:	c85a                	sw	s6,16(sp)
    35a2:	c65e                	sw	s7,12(sp)
    35a4:	d606                	sw	ra,44(sp)
    35a6:	d226                	sw	s1,36(sp)
    35a8:	ce4e                	sw	s3,28(sp)
    35aa:	8a2a                	mv	s4,a0
    35ac:	8aae                	mv	s5,a1
    35ae:	04850413          	addi	s0,a0,72
    35b2:	4901                	li	s2,0
    35b4:	4b05                	li	s6,1
    35b6:	5bfd                	li	s7,-1
    35b8:	ec09                	bnez	s0,35d2 <_fwalk_reent+0x3c>
    35ba:	50b2                	lw	ra,44(sp)
    35bc:	5422                	lw	s0,40(sp)
    35be:	854a                	mv	a0,s2
    35c0:	5492                	lw	s1,36(sp)
    35c2:	5902                	lw	s2,32(sp)
    35c4:	49f2                	lw	s3,28(sp)
    35c6:	4a62                	lw	s4,24(sp)
    35c8:	4ad2                	lw	s5,20(sp)
    35ca:	4b42                	lw	s6,16(sp)
    35cc:	4bb2                	lw	s7,12(sp)
    35ce:	6145                	addi	sp,sp,48
    35d0:	8082                	ret
    35d2:	4404                	lw	s1,8(s0)
    35d4:	00442983          	lw	s3,4(s0)
    35d8:	19fd                	addi	s3,s3,-1
    35da:	0009d463          	bgez	s3,35e2 <_fwalk_reent+0x4c>
    35de:	4000                	lw	s0,0(s0)
    35e0:	bfe1                	j	35b8 <_fwalk_reent+0x22>
    35e2:	24de                	lhu	a5,12(s1)
    35e4:	00fb7b63          	bgeu	s6,a5,35fa <_fwalk_reent+0x64>
    35e8:	00e49783          	lh	a5,14(s1)
    35ec:	01778763          	beq	a5,s7,35fa <_fwalk_reent+0x64>
    35f0:	85a6                	mv	a1,s1
    35f2:	8552                	mv	a0,s4
    35f4:	9a82                	jalr	s5
    35f6:	00a96933          	or	s2,s2,a0
    35fa:	06848493          	addi	s1,s1,104
    35fe:	bfe9                	j	35d8 <_fwalk_reent+0x42>

00003600 <__swhatbuf_r>:
    3600:	7119                	addi	sp,sp,-128
    3602:	daa6                	sw	s1,116(sp)
    3604:	84ae                	mv	s1,a1
    3606:	00e59583          	lh	a1,14(a1)
    360a:	dca2                	sw	s0,120(sp)
    360c:	de86                	sw	ra,124(sp)
    360e:	8432                	mv	s0,a2
    3610:	0005db63          	bgez	a1,3626 <__swhatbuf_r+0x26>
    3614:	24de                	lhu	a5,12(s1)
    3616:	0006a023          	sw	zero,0(a3)
    361a:	0807f793          	andi	a5,a5,128
    361e:	e785                	bnez	a5,3646 <__swhatbuf_r+0x46>
    3620:	40000793          	li	a5,1024
    3624:	a01d                	j	364a <__swhatbuf_r+0x4a>
    3626:	0830                	addi	a2,sp,24
    3628:	c636                	sw	a3,12(sp)
    362a:	201000ef          	jal	ra,402a <_fstat_r>
    362e:	46b2                	lw	a3,12(sp)
    3630:	fe0542e3          	bltz	a0,3614 <__swhatbuf_r+0x14>
    3634:	4772                	lw	a4,28(sp)
    3636:	67bd                	lui	a5,0xf
    3638:	8ff9                	and	a5,a5,a4
    363a:	7779                	lui	a4,0xffffe
    363c:	97ba                	add	a5,a5,a4
    363e:	0017b793          	seqz	a5,a5
    3642:	c29c                	sw	a5,0(a3)
    3644:	bff1                	j	3620 <__swhatbuf_r+0x20>
    3646:	04000793          	li	a5,64
    364a:	c01c                	sw	a5,0(s0)
    364c:	50f6                	lw	ra,124(sp)
    364e:	5466                	lw	s0,120(sp)
    3650:	54d6                	lw	s1,116(sp)
    3652:	4501                	li	a0,0
    3654:	6109                	addi	sp,sp,128
    3656:	8082                	ret

00003658 <__smakebuf_r>:
    3658:	25de                	lhu	a5,12(a1)
    365a:	1101                	addi	sp,sp,-32
    365c:	cc22                	sw	s0,24(sp)
    365e:	ce06                	sw	ra,28(sp)
    3660:	ca26                	sw	s1,20(sp)
    3662:	c84a                	sw	s2,16(sp)
    3664:	8b89                	andi	a5,a5,2
    3666:	842e                	mv	s0,a1
    3668:	cf89                	beqz	a5,3682 <__smakebuf_r+0x2a>
    366a:	04740793          	addi	a5,s0,71
    366e:	c01c                	sw	a5,0(s0)
    3670:	c81c                	sw	a5,16(s0)
    3672:	4785                	li	a5,1
    3674:	c85c                	sw	a5,20(s0)
    3676:	40f2                	lw	ra,28(sp)
    3678:	4462                	lw	s0,24(sp)
    367a:	44d2                	lw	s1,20(sp)
    367c:	4942                	lw	s2,16(sp)
    367e:	6105                	addi	sp,sp,32
    3680:	8082                	ret
    3682:	0074                	addi	a3,sp,12
    3684:	0030                	addi	a2,sp,8
    3686:	84aa                	mv	s1,a0
    3688:	3fa5                	jal	3600 <__swhatbuf_r>
    368a:	45a2                	lw	a1,8(sp)
    368c:	892a                	mv	s2,a0
    368e:	8526                	mv	a0,s1
    3690:	2201                	jal	3790 <_malloc_r>
    3692:	e919                	bnez	a0,36a8 <__smakebuf_r+0x50>
    3694:	00c41783          	lh	a5,12(s0)
    3698:	2007f713          	andi	a4,a5,512
    369c:	ff69                	bnez	a4,3676 <__smakebuf_r+0x1e>
    369e:	9bf1                	andi	a5,a5,-4
    36a0:	0027e793          	ori	a5,a5,2
    36a4:	a45e                	sh	a5,12(s0)
    36a6:	b7d1                	j	366a <__smakebuf_r+0x12>
    36a8:	00000797          	auipc	a5,0x0
    36ac:	d9c78793          	addi	a5,a5,-612 # 3444 <_cleanup_r>
    36b0:	d49c                	sw	a5,40(s1)
    36b2:	245e                	lhu	a5,12(s0)
    36b4:	c008                	sw	a0,0(s0)
    36b6:	c808                	sw	a0,16(s0)
    36b8:	0807e793          	ori	a5,a5,128
    36bc:	a45e                	sh	a5,12(s0)
    36be:	47a2                	lw	a5,8(sp)
    36c0:	c85c                	sw	a5,20(s0)
    36c2:	47b2                	lw	a5,12(sp)
    36c4:	cf81                	beqz	a5,36dc <__smakebuf_r+0x84>
    36c6:	00e41583          	lh	a1,14(s0)
    36ca:	8526                	mv	a0,s1
    36cc:	189000ef          	jal	ra,4054 <_isatty_r>
    36d0:	c511                	beqz	a0,36dc <__smakebuf_r+0x84>
    36d2:	245e                	lhu	a5,12(s0)
    36d4:	9bf1                	andi	a5,a5,-4
    36d6:	0017e793          	ori	a5,a5,1
    36da:	a45e                	sh	a5,12(s0)
    36dc:	245e                	lhu	a5,12(s0)
    36de:	00f96933          	or	s2,s2,a5
    36e2:	01241623          	sh	s2,12(s0)
    36e6:	bf41                	j	3676 <__smakebuf_r+0x1e>

000036e8 <_free_r>:
    36e8:	c1dd                	beqz	a1,378e <_free_r+0xa6>
    36ea:	ffc5a783          	lw	a5,-4(a1)
    36ee:	1141                	addi	sp,sp,-16
    36f0:	c422                	sw	s0,8(sp)
    36f2:	c606                	sw	ra,12(sp)
    36f4:	c226                	sw	s1,4(sp)
    36f6:	ffc58413          	addi	s0,a1,-4
    36fa:	0007d363          	bgez	a5,3700 <_free_r+0x18>
    36fe:	943e                	add	s0,s0,a5
    3700:	84aa                	mv	s1,a0
    3702:	1bf000ef          	jal	ra,40c0 <__malloc_lock>
    3706:	85418793          	addi	a5,gp,-1964 # 200000d4 <__malloc_free_list>
    370a:	439c                	lw	a5,0(a5)
    370c:	ef81                	bnez	a5,3724 <_free_r+0x3c>
    370e:	00042223          	sw	zero,4(s0)
    3712:	8481aa23          	sw	s0,-1964(gp) # 200000d4 <__malloc_free_list>
    3716:	4422                	lw	s0,8(sp)
    3718:	40b2                	lw	ra,12(sp)
    371a:	8526                	mv	a0,s1
    371c:	4492                	lw	s1,4(sp)
    371e:	0141                	addi	sp,sp,16
    3720:	1a30006f          	j	40c2 <__malloc_unlock>
    3724:	00f47e63          	bgeu	s0,a5,3740 <_free_r+0x58>
    3728:	4014                	lw	a3,0(s0)
    372a:	00d40733          	add	a4,s0,a3
    372e:	00e79663          	bne	a5,a4,373a <_free_r+0x52>
    3732:	4398                	lw	a4,0(a5)
    3734:	43dc                	lw	a5,4(a5)
    3736:	9736                	add	a4,a4,a3
    3738:	c018                	sw	a4,0(s0)
    373a:	c05c                	sw	a5,4(s0)
    373c:	bfd9                	j	3712 <_free_r+0x2a>
    373e:	87ba                	mv	a5,a4
    3740:	43d8                	lw	a4,4(a5)
    3742:	c319                	beqz	a4,3748 <_free_r+0x60>
    3744:	fee47de3          	bgeu	s0,a4,373e <_free_r+0x56>
    3748:	4394                	lw	a3,0(a5)
    374a:	00d78633          	add	a2,a5,a3
    374e:	00861f63          	bne	a2,s0,376c <_free_r+0x84>
    3752:	4010                	lw	a2,0(s0)
    3754:	96b2                	add	a3,a3,a2
    3756:	c394                	sw	a3,0(a5)
    3758:	00d78633          	add	a2,a5,a3
    375c:	fac71de3          	bne	a4,a2,3716 <_free_r+0x2e>
    3760:	4310                	lw	a2,0(a4)
    3762:	4358                	lw	a4,4(a4)
    3764:	96b2                	add	a3,a3,a2
    3766:	c394                	sw	a3,0(a5)
    3768:	c3d8                	sw	a4,4(a5)
    376a:	b775                	j	3716 <_free_r+0x2e>
    376c:	00c47563          	bgeu	s0,a2,3776 <_free_r+0x8e>
    3770:	47b1                	li	a5,12
    3772:	c09c                	sw	a5,0(s1)
    3774:	b74d                	j	3716 <_free_r+0x2e>
    3776:	4010                	lw	a2,0(s0)
    3778:	00c406b3          	add	a3,s0,a2
    377c:	00d71663          	bne	a4,a3,3788 <_free_r+0xa0>
    3780:	4314                	lw	a3,0(a4)
    3782:	4358                	lw	a4,4(a4)
    3784:	96b2                	add	a3,a3,a2
    3786:	c014                	sw	a3,0(s0)
    3788:	c058                	sw	a4,4(s0)
    378a:	c3c0                	sw	s0,4(a5)
    378c:	b769                	j	3716 <_free_r+0x2e>
    378e:	8082                	ret

00003790 <_malloc_r>:
    3790:	1101                	addi	sp,sp,-32
    3792:	ca26                	sw	s1,20(sp)
    3794:	00358493          	addi	s1,a1,3
    3798:	98f1                	andi	s1,s1,-4
    379a:	ce06                	sw	ra,28(sp)
    379c:	cc22                	sw	s0,24(sp)
    379e:	c84a                	sw	s2,16(sp)
    37a0:	c64e                	sw	s3,12(sp)
    37a2:	04a1                	addi	s1,s1,8
    37a4:	47b1                	li	a5,12
    37a6:	04f4f363          	bgeu	s1,a5,37ec <_malloc_r+0x5c>
    37aa:	44b1                	li	s1,12
    37ac:	04b4e263          	bltu	s1,a1,37f0 <_malloc_r+0x60>
    37b0:	892a                	mv	s2,a0
    37b2:	10f000ef          	jal	ra,40c0 <__malloc_lock>
    37b6:	85418793          	addi	a5,gp,-1964 # 200000d4 <__malloc_free_list>
    37ba:	4398                	lw	a4,0(a5)
    37bc:	843a                	mv	s0,a4
    37be:	e039                	bnez	s0,3804 <_malloc_r+0x74>
    37c0:	85818793          	addi	a5,gp,-1960 # 200000d8 <__malloc_sbrk_start>
    37c4:	439c                	lw	a5,0(a5)
    37c6:	e791                	bnez	a5,37d2 <_malloc_r+0x42>
    37c8:	4581                	li	a1,0
    37ca:	854a                	mv	a0,s2
    37cc:	2f15                	jal	3f00 <_sbrk_r>
    37ce:	84a1ac23          	sw	a0,-1960(gp) # 200000d8 <__malloc_sbrk_start>
    37d2:	85a6                	mv	a1,s1
    37d4:	854a                	mv	a0,s2
    37d6:	272d                	jal	3f00 <_sbrk_r>
    37d8:	59fd                	li	s3,-1
    37da:	07351963          	bne	a0,s3,384c <_malloc_r+0xbc>
    37de:	47b1                	li	a5,12
    37e0:	00f92023          	sw	a5,0(s2)
    37e4:	854a                	mv	a0,s2
    37e6:	0dd000ef          	jal	ra,40c2 <__malloc_unlock>
    37ea:	a029                	j	37f4 <_malloc_r+0x64>
    37ec:	fc04d0e3          	bgez	s1,37ac <_malloc_r+0x1c>
    37f0:	47b1                	li	a5,12
    37f2:	c11c                	sw	a5,0(a0)
    37f4:	4501                	li	a0,0
    37f6:	40f2                	lw	ra,28(sp)
    37f8:	4462                	lw	s0,24(sp)
    37fa:	44d2                	lw	s1,20(sp)
    37fc:	4942                	lw	s2,16(sp)
    37fe:	49b2                	lw	s3,12(sp)
    3800:	6105                	addi	sp,sp,32
    3802:	8082                	ret
    3804:	401c                	lw	a5,0(s0)
    3806:	8f85                	sub	a5,a5,s1
    3808:	0207cf63          	bltz	a5,3846 <_malloc_r+0xb6>
    380c:	46ad                	li	a3,11
    380e:	00f6f663          	bgeu	a3,a5,381a <_malloc_r+0x8a>
    3812:	c01c                	sw	a5,0(s0)
    3814:	943e                	add	s0,s0,a5
    3816:	c004                	sw	s1,0(s0)
    3818:	a031                	j	3824 <_malloc_r+0x94>
    381a:	405c                	lw	a5,4(s0)
    381c:	02871363          	bne	a4,s0,3842 <_malloc_r+0xb2>
    3820:	84f1aa23          	sw	a5,-1964(gp) # 200000d4 <__malloc_free_list>
    3824:	854a                	mv	a0,s2
    3826:	09d000ef          	jal	ra,40c2 <__malloc_unlock>
    382a:	00b40513          	addi	a0,s0,11
    382e:	00440793          	addi	a5,s0,4
    3832:	9961                	andi	a0,a0,-8
    3834:	40f50733          	sub	a4,a0,a5
    3838:	df5d                	beqz	a4,37f6 <_malloc_r+0x66>
    383a:	943a                	add	s0,s0,a4
    383c:	8f89                	sub	a5,a5,a0
    383e:	c01c                	sw	a5,0(s0)
    3840:	bf5d                	j	37f6 <_malloc_r+0x66>
    3842:	c35c                	sw	a5,4(a4)
    3844:	b7c5                	j	3824 <_malloc_r+0x94>
    3846:	8722                	mv	a4,s0
    3848:	4040                	lw	s0,4(s0)
    384a:	bf95                	j	37be <_malloc_r+0x2e>
    384c:	00350413          	addi	s0,a0,3
    3850:	9871                	andi	s0,s0,-4
    3852:	fc8502e3          	beq	a0,s0,3816 <_malloc_r+0x86>
    3856:	40a405b3          	sub	a1,s0,a0
    385a:	854a                	mv	a0,s2
    385c:	2555                	jal	3f00 <_sbrk_r>
    385e:	fb351ce3          	bne	a0,s3,3816 <_malloc_r+0x86>
    3862:	bfb5                	j	37de <_malloc_r+0x4e>

00003864 <__sfputc_r>:
    3864:	461c                	lw	a5,8(a2)
    3866:	17fd                	addi	a5,a5,-1
    3868:	c61c                	sw	a5,8(a2)
    386a:	0007da63          	bgez	a5,387e <__sfputc_r+0x1a>
    386e:	4e18                	lw	a4,24(a2)
    3870:	00e7c563          	blt	a5,a4,387a <__sfputc_r+0x16>
    3874:	47a9                	li	a5,10
    3876:	00f59463          	bne	a1,a5,387e <__sfputc_r+0x1a>
    387a:	819ff06f          	j	3092 <__swbuf_r>
    387e:	421c                	lw	a5,0(a2)
    3880:	852e                	mv	a0,a1
    3882:	00178713          	addi	a4,a5,1
    3886:	c218                	sw	a4,0(a2)
    3888:	a38c                	sb	a1,0(a5)
    388a:	8082                	ret

0000388c <__sfputs_r>:
    388c:	1101                	addi	sp,sp,-32
    388e:	cc22                	sw	s0,24(sp)
    3890:	ca26                	sw	s1,20(sp)
    3892:	c84a                	sw	s2,16(sp)
    3894:	c64e                	sw	s3,12(sp)
    3896:	c452                	sw	s4,8(sp)
    3898:	ce06                	sw	ra,28(sp)
    389a:	892a                	mv	s2,a0
    389c:	89ae                	mv	s3,a1
    389e:	8432                	mv	s0,a2
    38a0:	00d604b3          	add	s1,a2,a3
    38a4:	5a7d                	li	s4,-1
    38a6:	00941463          	bne	s0,s1,38ae <__sfputs_r+0x22>
    38aa:	4501                	li	a0,0
    38ac:	a801                	j	38bc <__sfputs_r+0x30>
    38ae:	200c                	lbu	a1,0(s0)
    38b0:	864e                	mv	a2,s3
    38b2:	854a                	mv	a0,s2
    38b4:	3f45                	jal	3864 <__sfputc_r>
    38b6:	0405                	addi	s0,s0,1
    38b8:	ff4517e3          	bne	a0,s4,38a6 <__sfputs_r+0x1a>
    38bc:	40f2                	lw	ra,28(sp)
    38be:	4462                	lw	s0,24(sp)
    38c0:	44d2                	lw	s1,20(sp)
    38c2:	4942                	lw	s2,16(sp)
    38c4:	49b2                	lw	s3,12(sp)
    38c6:	4a22                	lw	s4,8(sp)
    38c8:	6105                	addi	sp,sp,32
    38ca:	8082                	ret

000038cc <_vfiprintf_r>:
    38cc:	7135                	addi	sp,sp,-160
    38ce:	cd22                	sw	s0,152(sp)
    38d0:	cb26                	sw	s1,148(sp)
    38d2:	c94a                	sw	s2,144(sp)
    38d4:	c74e                	sw	s3,140(sp)
    38d6:	cf06                	sw	ra,156(sp)
    38d8:	c552                	sw	s4,136(sp)
    38da:	c356                	sw	s5,132(sp)
    38dc:	c15a                	sw	s6,128(sp)
    38de:	dede                	sw	s7,124(sp)
    38e0:	dce2                	sw	s8,120(sp)
    38e2:	dae6                	sw	s9,116(sp)
    38e4:	89aa                	mv	s3,a0
    38e6:	84ae                	mv	s1,a1
    38e8:	8932                	mv	s2,a2
    38ea:	8436                	mv	s0,a3
    38ec:	c509                	beqz	a0,38f6 <_vfiprintf_r+0x2a>
    38ee:	4d1c                	lw	a5,24(a0)
    38f0:	e399                	bnez	a5,38f6 <_vfiprintf_r+0x2a>
    38f2:	ba3ff0ef          	jal	ra,3494 <__sinit>
    38f6:	00001797          	auipc	a5,0x1
    38fa:	b8a78793          	addi	a5,a5,-1142 # 4480 <__sf_fake_stdin>
    38fe:	0cf49763          	bne	s1,a5,39cc <_vfiprintf_r+0x100>
    3902:	0049a483          	lw	s1,4(s3)
    3906:	24de                	lhu	a5,12(s1)
    3908:	8ba1                	andi	a5,a5,8
    390a:	c3fd                	beqz	a5,39f0 <_vfiprintf_r+0x124>
    390c:	489c                	lw	a5,16(s1)
    390e:	c3ed                	beqz	a5,39f0 <_vfiprintf_r+0x124>
    3910:	02000793          	li	a5,32
    3914:	02f104a3          	sb	a5,41(sp)
    3918:	03000793          	li	a5,48
    391c:	d202                	sw	zero,36(sp)
    391e:	02f10523          	sb	a5,42(sp)
    3922:	c622                	sw	s0,12(sp)
    3924:	02500b93          	li	s7,37
    3928:	00001a97          	auipc	s5,0x1
    392c:	b98a8a93          	addi	s5,s5,-1128 # 44c0 <__sf_fake_stdout+0x20>
    3930:	4c05                	li	s8,1
    3932:	4b29                	li	s6,10
    3934:	844a                	mv	s0,s2
    3936:	201c                	lbu	a5,0(s0)
    3938:	c399                	beqz	a5,393e <_vfiprintf_r+0x72>
    393a:	0d779e63          	bne	a5,s7,3a16 <_vfiprintf_r+0x14a>
    393e:	41240cb3          	sub	s9,s0,s2
    3942:	000c8d63          	beqz	s9,395c <_vfiprintf_r+0x90>
    3946:	86e6                	mv	a3,s9
    3948:	864a                	mv	a2,s2
    394a:	85a6                	mv	a1,s1
    394c:	854e                	mv	a0,s3
    394e:	3f3d                	jal	388c <__sfputs_r>
    3950:	57fd                	li	a5,-1
    3952:	1cf50f63          	beq	a0,a5,3b30 <_vfiprintf_r+0x264>
    3956:	5692                	lw	a3,36(sp)
    3958:	96e6                	add	a3,a3,s9
    395a:	d236                	sw	a3,36(sp)
    395c:	201c                	lbu	a5,0(s0)
    395e:	1c078963          	beqz	a5,3b30 <_vfiprintf_r+0x264>
    3962:	57fd                	li	a5,-1
    3964:	00140913          	addi	s2,s0,1
    3968:	c802                	sw	zero,16(sp)
    396a:	ce02                	sw	zero,28(sp)
    396c:	ca3e                	sw	a5,20(sp)
    396e:	cc02                	sw	zero,24(sp)
    3970:	040109a3          	sb	zero,83(sp)
    3974:	d482                	sw	zero,104(sp)
    3976:	00094583          	lbu	a1,0(s2)
    397a:	4615                	li	a2,5
    397c:	8556                	mv	a0,s5
    397e:	272d                	jal	40a8 <memchr>
    3980:	00190413          	addi	s0,s2,1
    3984:	47c2                	lw	a5,16(sp)
    3986:	e951                	bnez	a0,3a1a <_vfiprintf_r+0x14e>
    3988:	0107f713          	andi	a4,a5,16
    398c:	c709                	beqz	a4,3996 <_vfiprintf_r+0xca>
    398e:	02000713          	li	a4,32
    3992:	04e109a3          	sb	a4,83(sp)
    3996:	0087f713          	andi	a4,a5,8
    399a:	c709                	beqz	a4,39a4 <_vfiprintf_r+0xd8>
    399c:	02b00713          	li	a4,43
    39a0:	04e109a3          	sb	a4,83(sp)
    39a4:	00094683          	lbu	a3,0(s2)
    39a8:	02a00713          	li	a4,42
    39ac:	06e68f63          	beq	a3,a4,3a2a <_vfiprintf_r+0x15e>
    39b0:	47f2                	lw	a5,28(sp)
    39b2:	844a                	mv	s0,s2
    39b4:	4681                	li	a3,0
    39b6:	4625                	li	a2,9
    39b8:	2018                	lbu	a4,0(s0)
    39ba:	00140593          	addi	a1,s0,1
    39be:	fd070713          	addi	a4,a4,-48 # ffffdfd0 <_eusrstack+0xdfff8fd0>
    39c2:	0ae67763          	bgeu	a2,a4,3a70 <_vfiprintf_r+0x1a4>
    39c6:	cab5                	beqz	a3,3a3a <_vfiprintf_r+0x16e>
    39c8:	ce3e                	sw	a5,28(sp)
    39ca:	a885                	j	3a3a <_vfiprintf_r+0x16e>
    39cc:	00001797          	auipc	a5,0x1
    39d0:	ad478793          	addi	a5,a5,-1324 # 44a0 <__sf_fake_stdout>
    39d4:	00f49563          	bne	s1,a5,39de <_vfiprintf_r+0x112>
    39d8:	0089a483          	lw	s1,8(s3)
    39dc:	b72d                	j	3906 <_vfiprintf_r+0x3a>
    39de:	00001797          	auipc	a5,0x1
    39e2:	a8278793          	addi	a5,a5,-1406 # 4460 <__sf_fake_stderr>
    39e6:	f2f490e3          	bne	s1,a5,3906 <_vfiprintf_r+0x3a>
    39ea:	00c9a483          	lw	s1,12(s3)
    39ee:	bf21                	j	3906 <_vfiprintf_r+0x3a>
    39f0:	85a6                	mv	a1,s1
    39f2:	854e                	mv	a0,s3
    39f4:	f5aff0ef          	jal	ra,314e <__swsetup_r>
    39f8:	dd01                	beqz	a0,3910 <_vfiprintf_r+0x44>
    39fa:	557d                	li	a0,-1
    39fc:	40fa                	lw	ra,156(sp)
    39fe:	446a                	lw	s0,152(sp)
    3a00:	44da                	lw	s1,148(sp)
    3a02:	494a                	lw	s2,144(sp)
    3a04:	49ba                	lw	s3,140(sp)
    3a06:	4a2a                	lw	s4,136(sp)
    3a08:	4a9a                	lw	s5,132(sp)
    3a0a:	4b0a                	lw	s6,128(sp)
    3a0c:	5bf6                	lw	s7,124(sp)
    3a0e:	5c66                	lw	s8,120(sp)
    3a10:	5cd6                	lw	s9,116(sp)
    3a12:	610d                	addi	sp,sp,160
    3a14:	8082                	ret
    3a16:	0405                	addi	s0,s0,1
    3a18:	bf39                	j	3936 <_vfiprintf_r+0x6a>
    3a1a:	41550533          	sub	a0,a0,s5
    3a1e:	00ac1533          	sll	a0,s8,a0
    3a22:	8fc9                	or	a5,a5,a0
    3a24:	c83e                	sw	a5,16(sp)
    3a26:	8922                	mv	s2,s0
    3a28:	b7b9                	j	3976 <_vfiprintf_r+0xaa>
    3a2a:	4732                	lw	a4,12(sp)
    3a2c:	00470693          	addi	a3,a4,4
    3a30:	4318                	lw	a4,0(a4)
    3a32:	c636                	sw	a3,12(sp)
    3a34:	02074763          	bltz	a4,3a62 <_vfiprintf_r+0x196>
    3a38:	ce3a                	sw	a4,28(sp)
    3a3a:	2018                	lbu	a4,0(s0)
    3a3c:	02e00793          	li	a5,46
    3a40:	04f71d63          	bne	a4,a5,3a9a <_vfiprintf_r+0x1ce>
    3a44:	3018                	lbu	a4,1(s0)
    3a46:	02a00793          	li	a5,42
    3a4a:	02f71b63          	bne	a4,a5,3a80 <_vfiprintf_r+0x1b4>
    3a4e:	47b2                	lw	a5,12(sp)
    3a50:	0409                	addi	s0,s0,2
    3a52:	00478713          	addi	a4,a5,4
    3a56:	439c                	lw	a5,0(a5)
    3a58:	c63a                	sw	a4,12(sp)
    3a5a:	0207c163          	bltz	a5,3a7c <_vfiprintf_r+0x1b0>
    3a5e:	ca3e                	sw	a5,20(sp)
    3a60:	a82d                	j	3a9a <_vfiprintf_r+0x1ce>
    3a62:	40e00733          	neg	a4,a4
    3a66:	0027e793          	ori	a5,a5,2
    3a6a:	ce3a                	sw	a4,28(sp)
    3a6c:	c83e                	sw	a5,16(sp)
    3a6e:	b7f1                	j	3a3a <_vfiprintf_r+0x16e>
    3a70:	036787b3          	mul	a5,a5,s6
    3a74:	4685                	li	a3,1
    3a76:	842e                	mv	s0,a1
    3a78:	97ba                	add	a5,a5,a4
    3a7a:	bf3d                	j	39b8 <_vfiprintf_r+0xec>
    3a7c:	57fd                	li	a5,-1
    3a7e:	b7c5                	j	3a5e <_vfiprintf_r+0x192>
    3a80:	0405                	addi	s0,s0,1
    3a82:	ca02                	sw	zero,20(sp)
    3a84:	4681                	li	a3,0
    3a86:	4781                	li	a5,0
    3a88:	4625                	li	a2,9
    3a8a:	2018                	lbu	a4,0(s0)
    3a8c:	00140593          	addi	a1,s0,1
    3a90:	fd070713          	addi	a4,a4,-48
    3a94:	06e67463          	bgeu	a2,a4,3afc <_vfiprintf_r+0x230>
    3a98:	f2f9                	bnez	a3,3a5e <_vfiprintf_r+0x192>
    3a9a:	200c                	lbu	a1,0(s0)
    3a9c:	460d                	li	a2,3
    3a9e:	00001517          	auipc	a0,0x1
    3aa2:	a2a50513          	addi	a0,a0,-1494 # 44c8 <__sf_fake_stdout+0x28>
    3aa6:	2509                	jal	40a8 <memchr>
    3aa8:	cd11                	beqz	a0,3ac4 <_vfiprintf_r+0x1f8>
    3aaa:	00001797          	auipc	a5,0x1
    3aae:	a1e78793          	addi	a5,a5,-1506 # 44c8 <__sf_fake_stdout+0x28>
    3ab2:	8d1d                	sub	a0,a0,a5
    3ab4:	04000793          	li	a5,64
    3ab8:	00a797b3          	sll	a5,a5,a0
    3abc:	4542                	lw	a0,16(sp)
    3abe:	0405                	addi	s0,s0,1
    3ac0:	8d5d                	or	a0,a0,a5
    3ac2:	c82a                	sw	a0,16(sp)
    3ac4:	200c                	lbu	a1,0(s0)
    3ac6:	4619                	li	a2,6
    3ac8:	00001517          	auipc	a0,0x1
    3acc:	a0450513          	addi	a0,a0,-1532 # 44cc <__sf_fake_stdout+0x2c>
    3ad0:	00140913          	addi	s2,s0,1
    3ad4:	02b10423          	sb	a1,40(sp)
    3ad8:	2bc1                	jal	40a8 <memchr>
    3ada:	c135                	beqz	a0,3b3e <_vfiprintf_r+0x272>
    3adc:	ffffc797          	auipc	a5,0xffffc
    3ae0:	52478793          	addi	a5,a5,1316 # 0 <_sinit>
    3ae4:	e795                	bnez	a5,3b10 <_vfiprintf_r+0x244>
    3ae6:	4742                	lw	a4,16(sp)
    3ae8:	47b2                	lw	a5,12(sp)
    3aea:	10077713          	andi	a4,a4,256
    3aee:	cf09                	beqz	a4,3b08 <_vfiprintf_r+0x23c>
    3af0:	0791                	addi	a5,a5,4
    3af2:	c63e                	sw	a5,12(sp)
    3af4:	5792                	lw	a5,36(sp)
    3af6:	97d2                	add	a5,a5,s4
    3af8:	d23e                	sw	a5,36(sp)
    3afa:	bd2d                	j	3934 <_vfiprintf_r+0x68>
    3afc:	036787b3          	mul	a5,a5,s6
    3b00:	4685                	li	a3,1
    3b02:	842e                	mv	s0,a1
    3b04:	97ba                	add	a5,a5,a4
    3b06:	b751                	j	3a8a <_vfiprintf_r+0x1be>
    3b08:	079d                	addi	a5,a5,7
    3b0a:	9be1                	andi	a5,a5,-8
    3b0c:	07a1                	addi	a5,a5,8
    3b0e:	b7d5                	j	3af2 <_vfiprintf_r+0x226>
    3b10:	0078                	addi	a4,sp,12
    3b12:	00000697          	auipc	a3,0x0
    3b16:	d7a68693          	addi	a3,a3,-646 # 388c <__sfputs_r>
    3b1a:	8626                	mv	a2,s1
    3b1c:	080c                	addi	a1,sp,16
    3b1e:	854e                	mv	a0,s3
    3b20:	00000097          	auipc	ra,0x0
    3b24:	000000e7          	jalr	zero # 0 <_sinit>
    3b28:	57fd                	li	a5,-1
    3b2a:	8a2a                	mv	s4,a0
    3b2c:	fcf514e3          	bne	a0,a5,3af4 <_vfiprintf_r+0x228>
    3b30:	24de                	lhu	a5,12(s1)
    3b32:	0407f793          	andi	a5,a5,64
    3b36:	ec0792e3          	bnez	a5,39fa <_vfiprintf_r+0x12e>
    3b3a:	5512                	lw	a0,36(sp)
    3b3c:	b5c1                	j	39fc <_vfiprintf_r+0x130>
    3b3e:	0078                	addi	a4,sp,12
    3b40:	00000697          	auipc	a3,0x0
    3b44:	d4c68693          	addi	a3,a3,-692 # 388c <__sfputs_r>
    3b48:	8626                	mv	a2,s1
    3b4a:	080c                	addi	a1,sp,16
    3b4c:	854e                	mv	a0,s3
    3b4e:	2a01                	jal	3c5e <_printf_i>
    3b50:	bfe1                	j	3b28 <_vfiprintf_r+0x25c>

00003b52 <_printf_common>:
    3b52:	7179                	addi	sp,sp,-48
    3b54:	ca56                	sw	s5,20(sp)
    3b56:	499c                	lw	a5,16(a1)
    3b58:	8aba                	mv	s5,a4
    3b5a:	4598                	lw	a4,8(a1)
    3b5c:	d422                	sw	s0,40(sp)
    3b5e:	d226                	sw	s1,36(sp)
    3b60:	ce4e                	sw	s3,28(sp)
    3b62:	cc52                	sw	s4,24(sp)
    3b64:	d606                	sw	ra,44(sp)
    3b66:	d04a                	sw	s2,32(sp)
    3b68:	c85a                	sw	s6,16(sp)
    3b6a:	c65e                	sw	s7,12(sp)
    3b6c:	89aa                	mv	s3,a0
    3b6e:	842e                	mv	s0,a1
    3b70:	84b2                	mv	s1,a2
    3b72:	8a36                	mv	s4,a3
    3b74:	00e7d363          	bge	a5,a4,3b7a <_printf_common+0x28>
    3b78:	87ba                	mv	a5,a4
    3b7a:	c09c                	sw	a5,0(s1)
    3b7c:	04344703          	lbu	a4,67(s0)
    3b80:	c319                	beqz	a4,3b86 <_printf_common+0x34>
    3b82:	0785                	addi	a5,a5,1
    3b84:	c09c                	sw	a5,0(s1)
    3b86:	401c                	lw	a5,0(s0)
    3b88:	0207f793          	andi	a5,a5,32
    3b8c:	c781                	beqz	a5,3b94 <_printf_common+0x42>
    3b8e:	409c                	lw	a5,0(s1)
    3b90:	0789                	addi	a5,a5,2
    3b92:	c09c                	sw	a5,0(s1)
    3b94:	00042903          	lw	s2,0(s0)
    3b98:	00697913          	andi	s2,s2,6
    3b9c:	00091a63          	bnez	s2,3bb0 <_printf_common+0x5e>
    3ba0:	01940b13          	addi	s6,s0,25
    3ba4:	5bfd                	li	s7,-1
    3ba6:	445c                	lw	a5,12(s0)
    3ba8:	4098                	lw	a4,0(s1)
    3baa:	8f99                	sub	a5,a5,a4
    3bac:	04f94c63          	blt	s2,a5,3c04 <_printf_common+0xb2>
    3bb0:	401c                	lw	a5,0(s0)
    3bb2:	04344683          	lbu	a3,67(s0)
    3bb6:	0207f793          	andi	a5,a5,32
    3bba:	00d036b3          	snez	a3,a3
    3bbe:	eba5                	bnez	a5,3c2e <_printf_common+0xdc>
    3bc0:	04340613          	addi	a2,s0,67
    3bc4:	85d2                	mv	a1,s4
    3bc6:	854e                	mv	a0,s3
    3bc8:	9a82                	jalr	s5
    3bca:	57fd                	li	a5,-1
    3bcc:	04f50363          	beq	a0,a5,3c12 <_printf_common+0xc0>
    3bd0:	401c                	lw	a5,0(s0)
    3bd2:	4611                	li	a2,4
    3bd4:	4098                	lw	a4,0(s1)
    3bd6:	8b99                	andi	a5,a5,6
    3bd8:	4454                	lw	a3,12(s0)
    3bda:	4481                	li	s1,0
    3bdc:	00c79763          	bne	a5,a2,3bea <_printf_common+0x98>
    3be0:	40e684b3          	sub	s1,a3,a4
    3be4:	0004d363          	bgez	s1,3bea <_printf_common+0x98>
    3be8:	4481                	li	s1,0
    3bea:	441c                	lw	a5,8(s0)
    3bec:	4818                	lw	a4,16(s0)
    3bee:	00f75463          	bge	a4,a5,3bf6 <_printf_common+0xa4>
    3bf2:	8f99                	sub	a5,a5,a4
    3bf4:	94be                	add	s1,s1,a5
    3bf6:	4901                	li	s2,0
    3bf8:	0469                	addi	s0,s0,26
    3bfa:	5b7d                	li	s6,-1
    3bfc:	05249863          	bne	s1,s2,3c4c <_printf_common+0xfa>
    3c00:	4501                	li	a0,0
    3c02:	a809                	j	3c14 <_printf_common+0xc2>
    3c04:	4685                	li	a3,1
    3c06:	865a                	mv	a2,s6
    3c08:	85d2                	mv	a1,s4
    3c0a:	854e                	mv	a0,s3
    3c0c:	9a82                	jalr	s5
    3c0e:	01751e63          	bne	a0,s7,3c2a <_printf_common+0xd8>
    3c12:	557d                	li	a0,-1
    3c14:	50b2                	lw	ra,44(sp)
    3c16:	5422                	lw	s0,40(sp)
    3c18:	5492                	lw	s1,36(sp)
    3c1a:	5902                	lw	s2,32(sp)
    3c1c:	49f2                	lw	s3,28(sp)
    3c1e:	4a62                	lw	s4,24(sp)
    3c20:	4ad2                	lw	s5,20(sp)
    3c22:	4b42                	lw	s6,16(sp)
    3c24:	4bb2                	lw	s7,12(sp)
    3c26:	6145                	addi	sp,sp,48
    3c28:	8082                	ret
    3c2a:	0905                	addi	s2,s2,1
    3c2c:	bfad                	j	3ba6 <_printf_common+0x54>
    3c2e:	00d40733          	add	a4,s0,a3
    3c32:	03000613          	li	a2,48
    3c36:	04c701a3          	sb	a2,67(a4)
    3c3a:	04544703          	lbu	a4,69(s0)
    3c3e:	00168793          	addi	a5,a3,1
    3c42:	97a2                	add	a5,a5,s0
    3c44:	0689                	addi	a3,a3,2
    3c46:	04e781a3          	sb	a4,67(a5)
    3c4a:	bf9d                	j	3bc0 <_printf_common+0x6e>
    3c4c:	4685                	li	a3,1
    3c4e:	8622                	mv	a2,s0
    3c50:	85d2                	mv	a1,s4
    3c52:	854e                	mv	a0,s3
    3c54:	9a82                	jalr	s5
    3c56:	fb650ee3          	beq	a0,s6,3c12 <_printf_common+0xc0>
    3c5a:	0905                	addi	s2,s2,1
    3c5c:	b745                	j	3bfc <_printf_common+0xaa>

00003c5e <_printf_i>:
    3c5e:	7179                	addi	sp,sp,-48
    3c60:	d422                	sw	s0,40(sp)
    3c62:	d226                	sw	s1,36(sp)
    3c64:	d04a                	sw	s2,32(sp)
    3c66:	ce4e                	sw	s3,28(sp)
    3c68:	d606                	sw	ra,44(sp)
    3c6a:	cc52                	sw	s4,24(sp)
    3c6c:	ca56                	sw	s5,20(sp)
    3c6e:	c85a                	sw	s6,16(sp)
    3c70:	89b6                	mv	s3,a3
    3c72:	2d94                	lbu	a3,24(a1)
    3c74:	06900793          	li	a5,105
    3c78:	8932                	mv	s2,a2
    3c7a:	84aa                	mv	s1,a0
    3c7c:	842e                	mv	s0,a1
    3c7e:	04358613          	addi	a2,a1,67
    3c82:	02f68d63          	beq	a3,a5,3cbc <_printf_i+0x5e>
    3c86:	06d7e263          	bltu	a5,a3,3cea <_printf_i+0x8c>
    3c8a:	05800793          	li	a5,88
    3c8e:	18f68663          	beq	a3,a5,3e1a <_printf_i+0x1bc>
    3c92:	00d7ed63          	bltu	a5,a3,3cac <_printf_i+0x4e>
    3c96:	20068e63          	beqz	a3,3eb2 <_printf_i+0x254>
    3c9a:	04300793          	li	a5,67
    3c9e:	0af68e63          	beq	a3,a5,3d5a <_printf_i+0xfc>
    3ca2:	04240a93          	addi	s5,s0,66
    3ca6:	04d40123          	sb	a3,66(s0)
    3caa:	a0c9                	j	3d6c <_printf_i+0x10e>
    3cac:	06300793          	li	a5,99
    3cb0:	0af68563          	beq	a3,a5,3d5a <_printf_i+0xfc>
    3cb4:	06400793          	li	a5,100
    3cb8:	fef695e3          	bne	a3,a5,3ca2 <_printf_i+0x44>
    3cbc:	401c                	lw	a5,0(s0)
    3cbe:	4308                	lw	a0,0(a4)
    3cc0:	0807f693          	andi	a3,a5,128
    3cc4:	00450593          	addi	a1,a0,4
    3cc8:	c6c5                	beqz	a3,3d70 <_printf_i+0x112>
    3cca:	411c                	lw	a5,0(a0)
    3ccc:	c30c                	sw	a1,0(a4)
    3cce:	0007d863          	bgez	a5,3cde <_printf_i+0x80>
    3cd2:	02d00713          	li	a4,45
    3cd6:	40f007b3          	neg	a5,a5
    3cda:	04e401a3          	sb	a4,67(s0)
    3cde:	00000697          	auipc	a3,0x0
    3ce2:	7f668693          	addi	a3,a3,2038 # 44d4 <__sf_fake_stdout+0x34>
    3ce6:	4729                	li	a4,10
    3ce8:	a865                	j	3da0 <_printf_i+0x142>
    3cea:	07000793          	li	a5,112
    3cee:	16f68263          	beq	a3,a5,3e52 <_printf_i+0x1f4>
    3cf2:	02d7e563          	bltu	a5,a3,3d1c <_printf_i+0xbe>
    3cf6:	06e00793          	li	a5,110
    3cfa:	18f68963          	beq	a3,a5,3e8c <_printf_i+0x22e>
    3cfe:	06f00793          	li	a5,111
    3d02:	faf690e3          	bne	a3,a5,3ca2 <_printf_i+0x44>
    3d06:	400c                	lw	a1,0(s0)
    3d08:	431c                	lw	a5,0(a4)
    3d0a:	0805f813          	andi	a6,a1,128
    3d0e:	00478513          	addi	a0,a5,4
    3d12:	06080763          	beqz	a6,3d80 <_printf_i+0x122>
    3d16:	c308                	sw	a0,0(a4)
    3d18:	439c                	lw	a5,0(a5)
    3d1a:	a885                	j	3d8a <_printf_i+0x12c>
    3d1c:	07500793          	li	a5,117
    3d20:	fef683e3          	beq	a3,a5,3d06 <_printf_i+0xa8>
    3d24:	07800793          	li	a5,120
    3d28:	12f68963          	beq	a3,a5,3e5a <_printf_i+0x1fc>
    3d2c:	07300793          	li	a5,115
    3d30:	f6f699e3          	bne	a3,a5,3ca2 <_printf_i+0x44>
    3d34:	431c                	lw	a5,0(a4)
    3d36:	41d0                	lw	a2,4(a1)
    3d38:	4581                	li	a1,0
    3d3a:	00478693          	addi	a3,a5,4
    3d3e:	c314                	sw	a3,0(a4)
    3d40:	0007aa83          	lw	s5,0(a5)
    3d44:	8556                	mv	a0,s5
    3d46:	268d                	jal	40a8 <memchr>
    3d48:	c501                	beqz	a0,3d50 <_printf_i+0xf2>
    3d4a:	41550533          	sub	a0,a0,s5
    3d4e:	c048                	sw	a0,4(s0)
    3d50:	405c                	lw	a5,4(s0)
    3d52:	c81c                	sw	a5,16(s0)
    3d54:	040401a3          	sb	zero,67(s0)
    3d58:	a861                	j	3df0 <_printf_i+0x192>
    3d5a:	431c                	lw	a5,0(a4)
    3d5c:	04240a93          	addi	s5,s0,66
    3d60:	00478693          	addi	a3,a5,4
    3d64:	439c                	lw	a5,0(a5)
    3d66:	c314                	sw	a3,0(a4)
    3d68:	04f40123          	sb	a5,66(s0)
    3d6c:	4785                	li	a5,1
    3d6e:	b7d5                	j	3d52 <_printf_i+0xf4>
    3d70:	0407f693          	andi	a3,a5,64
    3d74:	411c                	lw	a5,0(a0)
    3d76:	c30c                	sw	a1,0(a4)
    3d78:	dab9                	beqz	a3,3cce <_printf_i+0x70>
    3d7a:	07c2                	slli	a5,a5,0x10
    3d7c:	87c1                	srai	a5,a5,0x10
    3d7e:	bf81                	j	3cce <_printf_i+0x70>
    3d80:	0405f593          	andi	a1,a1,64
    3d84:	c308                	sw	a0,0(a4)
    3d86:	d9c9                	beqz	a1,3d18 <_printf_i+0xba>
    3d88:	239e                	lhu	a5,0(a5)
    3d8a:	06f00713          	li	a4,111
    3d8e:	0ee68763          	beq	a3,a4,3e7c <_printf_i+0x21e>
    3d92:	00000697          	auipc	a3,0x0
    3d96:	74268693          	addi	a3,a3,1858 # 44d4 <__sf_fake_stdout+0x34>
    3d9a:	4729                	li	a4,10
    3d9c:	040401a3          	sb	zero,67(s0)
    3da0:	404c                	lw	a1,4(s0)
    3da2:	c40c                	sw	a1,8(s0)
    3da4:	0005c563          	bltz	a1,3dae <_printf_i+0x150>
    3da8:	4008                	lw	a0,0(s0)
    3daa:	996d                	andi	a0,a0,-5
    3dac:	c008                	sw	a0,0(s0)
    3dae:	e399                	bnez	a5,3db4 <_printf_i+0x156>
    3db0:	8ab2                	mv	s5,a2
    3db2:	cd89                	beqz	a1,3dcc <_printf_i+0x16e>
    3db4:	8ab2                	mv	s5,a2
    3db6:	02e7f5b3          	remu	a1,a5,a4
    3dba:	1afd                	addi	s5,s5,-1
    3dbc:	95b6                	add	a1,a1,a3
    3dbe:	218c                	lbu	a1,0(a1)
    3dc0:	00ba8023          	sb	a1,0(s5)
    3dc4:	02e7d5b3          	divu	a1,a5,a4
    3dc8:	0ce7f063          	bgeu	a5,a4,3e88 <_printf_i+0x22a>
    3dcc:	47a1                	li	a5,8
    3dce:	00f71e63          	bne	a4,a5,3dea <_printf_i+0x18c>
    3dd2:	401c                	lw	a5,0(s0)
    3dd4:	8b85                	andi	a5,a5,1
    3dd6:	cb91                	beqz	a5,3dea <_printf_i+0x18c>
    3dd8:	4058                	lw	a4,4(s0)
    3dda:	481c                	lw	a5,16(s0)
    3ddc:	00e7c763          	blt	a5,a4,3dea <_printf_i+0x18c>
    3de0:	03000793          	li	a5,48
    3de4:	fefa8fa3          	sb	a5,-1(s5)
    3de8:	1afd                	addi	s5,s5,-1
    3dea:	41560633          	sub	a2,a2,s5
    3dee:	c810                	sw	a2,16(s0)
    3df0:	874e                	mv	a4,s3
    3df2:	86ca                	mv	a3,s2
    3df4:	0070                	addi	a2,sp,12
    3df6:	85a2                	mv	a1,s0
    3df8:	8526                	mv	a0,s1
    3dfa:	d59ff0ef          	jal	ra,3b52 <_printf_common>
    3dfe:	5a7d                	li	s4,-1
    3e00:	0b451d63          	bne	a0,s4,3eba <_printf_i+0x25c>
    3e04:	557d                	li	a0,-1
    3e06:	50b2                	lw	ra,44(sp)
    3e08:	5422                	lw	s0,40(sp)
    3e0a:	5492                	lw	s1,36(sp)
    3e0c:	5902                	lw	s2,32(sp)
    3e0e:	49f2                	lw	s3,28(sp)
    3e10:	4a62                	lw	s4,24(sp)
    3e12:	4ad2                	lw	s5,20(sp)
    3e14:	4b42                	lw	s6,16(sp)
    3e16:	6145                	addi	sp,sp,48
    3e18:	8082                	ret
    3e1a:	04d582a3          	sb	a3,69(a1)
    3e1e:	00000697          	auipc	a3,0x0
    3e22:	6b668693          	addi	a3,a3,1718 # 44d4 <__sf_fake_stdout+0x34>
    3e26:	400c                	lw	a1,0(s0)
    3e28:	4308                	lw	a0,0(a4)
    3e2a:	0805f813          	andi	a6,a1,128
    3e2e:	411c                	lw	a5,0(a0)
    3e30:	0511                	addi	a0,a0,4
    3e32:	02080d63          	beqz	a6,3e6c <_printf_i+0x20e>
    3e36:	c308                	sw	a0,0(a4)
    3e38:	0015f713          	andi	a4,a1,1
    3e3c:	c701                	beqz	a4,3e44 <_printf_i+0x1e6>
    3e3e:	0205e593          	ori	a1,a1,32
    3e42:	c00c                	sw	a1,0(s0)
    3e44:	4741                	li	a4,16
    3e46:	fbb9                	bnez	a5,3d9c <_printf_i+0x13e>
    3e48:	400c                	lw	a1,0(s0)
    3e4a:	fdf5f593          	andi	a1,a1,-33
    3e4e:	c00c                	sw	a1,0(s0)
    3e50:	b7b1                	j	3d9c <_printf_i+0x13e>
    3e52:	419c                	lw	a5,0(a1)
    3e54:	0207e793          	ori	a5,a5,32
    3e58:	c19c                	sw	a5,0(a1)
    3e5a:	07800793          	li	a5,120
    3e5e:	04f402a3          	sb	a5,69(s0)
    3e62:	00000697          	auipc	a3,0x0
    3e66:	68668693          	addi	a3,a3,1670 # 44e8 <__sf_fake_stdout+0x48>
    3e6a:	bf75                	j	3e26 <_printf_i+0x1c8>
    3e6c:	0405f813          	andi	a6,a1,64
    3e70:	c308                	sw	a0,0(a4)
    3e72:	fc0803e3          	beqz	a6,3e38 <_printf_i+0x1da>
    3e76:	07c2                	slli	a5,a5,0x10
    3e78:	83c1                	srli	a5,a5,0x10
    3e7a:	bf7d                	j	3e38 <_printf_i+0x1da>
    3e7c:	00000697          	auipc	a3,0x0
    3e80:	65868693          	addi	a3,a3,1624 # 44d4 <__sf_fake_stdout+0x34>
    3e84:	4721                	li	a4,8
    3e86:	bf19                	j	3d9c <_printf_i+0x13e>
    3e88:	87ae                	mv	a5,a1
    3e8a:	b735                	j	3db6 <_printf_i+0x158>
    3e8c:	4194                	lw	a3,0(a1)
    3e8e:	431c                	lw	a5,0(a4)
    3e90:	49cc                	lw	a1,20(a1)
    3e92:	0806f813          	andi	a6,a3,128
    3e96:	00478513          	addi	a0,a5,4
    3e9a:	00080663          	beqz	a6,3ea6 <_printf_i+0x248>
    3e9e:	c308                	sw	a0,0(a4)
    3ea0:	439c                	lw	a5,0(a5)
    3ea2:	c38c                	sw	a1,0(a5)
    3ea4:	a039                	j	3eb2 <_printf_i+0x254>
    3ea6:	c308                	sw	a0,0(a4)
    3ea8:	0406f693          	andi	a3,a3,64
    3eac:	439c                	lw	a5,0(a5)
    3eae:	daf5                	beqz	a3,3ea2 <_printf_i+0x244>
    3eb0:	a38e                	sh	a1,0(a5)
    3eb2:	00042823          	sw	zero,16(s0)
    3eb6:	8ab2                	mv	s5,a2
    3eb8:	bf25                	j	3df0 <_printf_i+0x192>
    3eba:	4814                	lw	a3,16(s0)
    3ebc:	8656                	mv	a2,s5
    3ebe:	85ca                	mv	a1,s2
    3ec0:	8526                	mv	a0,s1
    3ec2:	9982                	jalr	s3
    3ec4:	f54500e3          	beq	a0,s4,3e04 <_printf_i+0x1a6>
    3ec8:	401c                	lw	a5,0(s0)
    3eca:	8b89                	andi	a5,a5,2
    3ecc:	e78d                	bnez	a5,3ef6 <_printf_i+0x298>
    3ece:	47b2                	lw	a5,12(sp)
    3ed0:	4448                	lw	a0,12(s0)
    3ed2:	f2f55ae3          	bge	a0,a5,3e06 <_printf_i+0x1a8>
    3ed6:	853e                	mv	a0,a5
    3ed8:	b73d                	j	3e06 <_printf_i+0x1a8>
    3eda:	4685                	li	a3,1
    3edc:	8656                	mv	a2,s5
    3ede:	85ca                	mv	a1,s2
    3ee0:	8526                	mv	a0,s1
    3ee2:	9982                	jalr	s3
    3ee4:	f36500e3          	beq	a0,s6,3e04 <_printf_i+0x1a6>
    3ee8:	0a05                	addi	s4,s4,1
    3eea:	445c                	lw	a5,12(s0)
    3eec:	4732                	lw	a4,12(sp)
    3eee:	8f99                	sub	a5,a5,a4
    3ef0:	fefa45e3          	blt	s4,a5,3eda <_printf_i+0x27c>
    3ef4:	bfe9                	j	3ece <_printf_i+0x270>
    3ef6:	4a01                	li	s4,0
    3ef8:	01940a93          	addi	s5,s0,25
    3efc:	5b7d                	li	s6,-1
    3efe:	b7f5                	j	3eea <_printf_i+0x28c>

00003f00 <_sbrk_r>:
    3f00:	1141                	addi	sp,sp,-16
    3f02:	c422                	sw	s0,8(sp)
    3f04:	842a                	mv	s0,a0
    3f06:	852e                	mv	a0,a1
    3f08:	5a01ae23          	sw	zero,1468(gp) # 20000e3c <errno>
    3f0c:	c606                	sw	ra,12(sp)
    3f0e:	f5bfe0ef          	jal	ra,2e68 <_sbrk>
    3f12:	57fd                	li	a5,-1
    3f14:	00f51763          	bne	a0,a5,3f22 <_sbrk_r+0x22>
    3f18:	5bc18793          	addi	a5,gp,1468 # 20000e3c <errno>
    3f1c:	439c                	lw	a5,0(a5)
    3f1e:	c391                	beqz	a5,3f22 <_sbrk_r+0x22>
    3f20:	c01c                	sw	a5,0(s0)
    3f22:	40b2                	lw	ra,12(sp)
    3f24:	4422                	lw	s0,8(sp)
    3f26:	0141                	addi	sp,sp,16
    3f28:	8082                	ret

00003f2a <__sread>:
    3f2a:	1141                	addi	sp,sp,-16
    3f2c:	c422                	sw	s0,8(sp)
    3f2e:	842e                	mv	s0,a1
    3f30:	00e59583          	lh	a1,14(a1)
    3f34:	c606                	sw	ra,12(sp)
    3f36:	2279                	jal	40c4 <_read_r>
    3f38:	00054963          	bltz	a0,3f4a <__sread+0x20>
    3f3c:	487c                	lw	a5,84(s0)
    3f3e:	97aa                	add	a5,a5,a0
    3f40:	c87c                	sw	a5,84(s0)
    3f42:	40b2                	lw	ra,12(sp)
    3f44:	4422                	lw	s0,8(sp)
    3f46:	0141                	addi	sp,sp,16
    3f48:	8082                	ret
    3f4a:	245e                	lhu	a5,12(s0)
    3f4c:	777d                	lui	a4,0xfffff
    3f4e:	177d                	addi	a4,a4,-1
    3f50:	8ff9                	and	a5,a5,a4
    3f52:	a45e                	sh	a5,12(s0)
    3f54:	b7fd                	j	3f42 <__sread+0x18>

00003f56 <__swrite>:
    3f56:	25de                	lhu	a5,12(a1)
    3f58:	1101                	addi	sp,sp,-32
    3f5a:	cc22                	sw	s0,24(sp)
    3f5c:	ca26                	sw	s1,20(sp)
    3f5e:	c84a                	sw	s2,16(sp)
    3f60:	c64e                	sw	s3,12(sp)
    3f62:	ce06                	sw	ra,28(sp)
    3f64:	1007f793          	andi	a5,a5,256
    3f68:	84aa                	mv	s1,a0
    3f6a:	842e                	mv	s0,a1
    3f6c:	8932                	mv	s2,a2
    3f6e:	89b6                	mv	s3,a3
    3f70:	c791                	beqz	a5,3f7c <__swrite+0x26>
    3f72:	00e59583          	lh	a1,14(a1)
    3f76:	4689                	li	a3,2
    3f78:	4601                	li	a2,0
    3f7a:	2209                	jal	407c <_lseek_r>
    3f7c:	245e                	lhu	a5,12(s0)
    3f7e:	777d                	lui	a4,0xfffff
    3f80:	177d                	addi	a4,a4,-1
    3f82:	8ff9                	and	a5,a5,a4
    3f84:	a45e                	sh	a5,12(s0)
    3f86:	00e41583          	lh	a1,14(s0)
    3f8a:	4462                	lw	s0,24(sp)
    3f8c:	40f2                	lw	ra,28(sp)
    3f8e:	86ce                	mv	a3,s3
    3f90:	864a                	mv	a2,s2
    3f92:	49b2                	lw	s3,12(sp)
    3f94:	4942                	lw	s2,16(sp)
    3f96:	8526                	mv	a0,s1
    3f98:	44d2                	lw	s1,20(sp)
    3f9a:	6105                	addi	sp,sp,32
    3f9c:	a825                	j	3fd4 <_write_r>

00003f9e <__sseek>:
    3f9e:	1141                	addi	sp,sp,-16
    3fa0:	c422                	sw	s0,8(sp)
    3fa2:	842e                	mv	s0,a1
    3fa4:	00e59583          	lh	a1,14(a1)
    3fa8:	c606                	sw	ra,12(sp)
    3faa:	28c9                	jal	407c <_lseek_r>
    3fac:	57fd                	li	a5,-1
    3fae:	245a                	lhu	a4,12(s0)
    3fb0:	00f51a63          	bne	a0,a5,3fc4 <__sseek+0x26>
    3fb4:	77fd                	lui	a5,0xfffff
    3fb6:	17fd                	addi	a5,a5,-1
    3fb8:	8ff9                	and	a5,a5,a4
    3fba:	a45e                	sh	a5,12(s0)
    3fbc:	40b2                	lw	ra,12(sp)
    3fbe:	4422                	lw	s0,8(sp)
    3fc0:	0141                	addi	sp,sp,16
    3fc2:	8082                	ret
    3fc4:	6785                	lui	a5,0x1
    3fc6:	8fd9                	or	a5,a5,a4
    3fc8:	a45e                	sh	a5,12(s0)
    3fca:	c868                	sw	a0,84(s0)
    3fcc:	bfc5                	j	3fbc <__sseek+0x1e>

00003fce <__sclose>:
    3fce:	00e59583          	lh	a1,14(a1)
    3fd2:	a805                	j	4002 <_close_r>

00003fd4 <_write_r>:
    3fd4:	1141                	addi	sp,sp,-16
    3fd6:	c422                	sw	s0,8(sp)
    3fd8:	842a                	mv	s0,a0
    3fda:	852e                	mv	a0,a1
    3fdc:	85b2                	mv	a1,a2
    3fde:	8636                	mv	a2,a3
    3fe0:	5a01ae23          	sw	zero,1468(gp) # 20000e3c <errno>
    3fe4:	c606                	sw	ra,12(sp)
    3fe6:	e0dfe0ef          	jal	ra,2df2 <_write>
    3fea:	57fd                	li	a5,-1
    3fec:	00f51763          	bne	a0,a5,3ffa <_write_r+0x26>
    3ff0:	5bc18793          	addi	a5,gp,1468 # 20000e3c <errno>
    3ff4:	439c                	lw	a5,0(a5)
    3ff6:	c391                	beqz	a5,3ffa <_write_r+0x26>
    3ff8:	c01c                	sw	a5,0(s0)
    3ffa:	40b2                	lw	ra,12(sp)
    3ffc:	4422                	lw	s0,8(sp)
    3ffe:	0141                	addi	sp,sp,16
    4000:	8082                	ret

00004002 <_close_r>:
    4002:	1141                	addi	sp,sp,-16
    4004:	c422                	sw	s0,8(sp)
    4006:	842a                	mv	s0,a0
    4008:	852e                	mv	a0,a1
    400a:	5a01ae23          	sw	zero,1468(gp) # 20000e3c <errno>
    400e:	c606                	sw	ra,12(sp)
    4010:	20c5                	jal	40f0 <_close>
    4012:	57fd                	li	a5,-1
    4014:	00f51763          	bne	a0,a5,4022 <_close_r+0x20>
    4018:	5bc18793          	addi	a5,gp,1468 # 20000e3c <errno>
    401c:	439c                	lw	a5,0(a5)
    401e:	c391                	beqz	a5,4022 <_close_r+0x20>
    4020:	c01c                	sw	a5,0(s0)
    4022:	40b2                	lw	ra,12(sp)
    4024:	4422                	lw	s0,8(sp)
    4026:	0141                	addi	sp,sp,16
    4028:	8082                	ret

0000402a <_fstat_r>:
    402a:	1141                	addi	sp,sp,-16
    402c:	c422                	sw	s0,8(sp)
    402e:	842a                	mv	s0,a0
    4030:	852e                	mv	a0,a1
    4032:	85b2                	mv	a1,a2
    4034:	5a01ae23          	sw	zero,1468(gp) # 20000e3c <errno>
    4038:	c606                	sw	ra,12(sp)
    403a:	20c9                	jal	40fc <_fstat>
    403c:	57fd                	li	a5,-1
    403e:	00f51763          	bne	a0,a5,404c <_fstat_r+0x22>
    4042:	5bc18793          	addi	a5,gp,1468 # 20000e3c <errno>
    4046:	439c                	lw	a5,0(a5)
    4048:	c391                	beqz	a5,404c <_fstat_r+0x22>
    404a:	c01c                	sw	a5,0(s0)
    404c:	40b2                	lw	ra,12(sp)
    404e:	4422                	lw	s0,8(sp)
    4050:	0141                	addi	sp,sp,16
    4052:	8082                	ret

00004054 <_isatty_r>:
    4054:	1141                	addi	sp,sp,-16
    4056:	c422                	sw	s0,8(sp)
    4058:	842a                	mv	s0,a0
    405a:	852e                	mv	a0,a1
    405c:	5a01ae23          	sw	zero,1468(gp) # 20000e3c <errno>
    4060:	c606                	sw	ra,12(sp)
    4062:	205d                	jal	4108 <_isatty>
    4064:	57fd                	li	a5,-1
    4066:	00f51763          	bne	a0,a5,4074 <_isatty_r+0x20>
    406a:	5bc18793          	addi	a5,gp,1468 # 20000e3c <errno>
    406e:	439c                	lw	a5,0(a5)
    4070:	c391                	beqz	a5,4074 <_isatty_r+0x20>
    4072:	c01c                	sw	a5,0(s0)
    4074:	40b2                	lw	ra,12(sp)
    4076:	4422                	lw	s0,8(sp)
    4078:	0141                	addi	sp,sp,16
    407a:	8082                	ret

0000407c <_lseek_r>:
    407c:	1141                	addi	sp,sp,-16
    407e:	c422                	sw	s0,8(sp)
    4080:	842a                	mv	s0,a0
    4082:	852e                	mv	a0,a1
    4084:	85b2                	mv	a1,a2
    4086:	8636                	mv	a2,a3
    4088:	5a01ae23          	sw	zero,1468(gp) # 20000e3c <errno>
    408c:	c606                	sw	ra,12(sp)
    408e:	2059                	jal	4114 <_lseek>
    4090:	57fd                	li	a5,-1
    4092:	00f51763          	bne	a0,a5,40a0 <_lseek_r+0x24>
    4096:	5bc18793          	addi	a5,gp,1468 # 20000e3c <errno>
    409a:	439c                	lw	a5,0(a5)
    409c:	c391                	beqz	a5,40a0 <_lseek_r+0x24>
    409e:	c01c                	sw	a5,0(s0)
    40a0:	40b2                	lw	ra,12(sp)
    40a2:	4422                	lw	s0,8(sp)
    40a4:	0141                	addi	sp,sp,16
    40a6:	8082                	ret

000040a8 <memchr>:
    40a8:	0ff5f593          	andi	a1,a1,255
    40ac:	962a                	add	a2,a2,a0
    40ae:	00c51463          	bne	a0,a2,40b6 <memchr+0xe>
    40b2:	4501                	li	a0,0
    40b4:	8082                	ret
    40b6:	211c                	lbu	a5,0(a0)
    40b8:	feb78ee3          	beq	a5,a1,40b4 <memchr+0xc>
    40bc:	0505                	addi	a0,a0,1
    40be:	bfc5                	j	40ae <memchr+0x6>

000040c0 <__malloc_lock>:
    40c0:	8082                	ret

000040c2 <__malloc_unlock>:
    40c2:	8082                	ret

000040c4 <_read_r>:
    40c4:	1141                	addi	sp,sp,-16
    40c6:	c422                	sw	s0,8(sp)
    40c8:	842a                	mv	s0,a0
    40ca:	852e                	mv	a0,a1
    40cc:	85b2                	mv	a1,a2
    40ce:	8636                	mv	a2,a3
    40d0:	5a01ae23          	sw	zero,1468(gp) # 20000e3c <errno>
    40d4:	c606                	sw	ra,12(sp)
    40d6:	20a9                	jal	4120 <_read>
    40d8:	57fd                	li	a5,-1
    40da:	00f51763          	bne	a0,a5,40e8 <_read_r+0x24>
    40de:	5bc18793          	addi	a5,gp,1468 # 20000e3c <errno>
    40e2:	439c                	lw	a5,0(a5)
    40e4:	c391                	beqz	a5,40e8 <_read_r+0x24>
    40e6:	c01c                	sw	a5,0(s0)
    40e8:	40b2                	lw	ra,12(sp)
    40ea:	4422                	lw	s0,8(sp)
    40ec:	0141                	addi	sp,sp,16
    40ee:	8082                	ret

000040f0 <_close>:
    40f0:	05800793          	li	a5,88
    40f4:	5af1ae23          	sw	a5,1468(gp) # 20000e3c <errno>
    40f8:	557d                	li	a0,-1
    40fa:	8082                	ret

000040fc <_fstat>:
    40fc:	05800793          	li	a5,88
    4100:	5af1ae23          	sw	a5,1468(gp) # 20000e3c <errno>
    4104:	557d                	li	a0,-1
    4106:	8082                	ret

00004108 <_isatty>:
    4108:	05800793          	li	a5,88
    410c:	5af1ae23          	sw	a5,1468(gp) # 20000e3c <errno>
    4110:	4501                	li	a0,0
    4112:	8082                	ret

00004114 <_lseek>:
    4114:	05800793          	li	a5,88
    4118:	5af1ae23          	sw	a5,1468(gp) # 20000e3c <errno>
    411c:	557d                	li	a0,-1
    411e:	8082                	ret

00004120 <_read>:
    4120:	05800793          	li	a5,88
    4124:	5af1ae23          	sw	a5,1468(gp) # 20000e3c <errno>
    4128:	557d                	li	a0,-1
    412a:	8082                	ret
    412c:	0a0d                	addi	s4,s4,3
    412e:	7020                	flw	fs0,96(s0)
    4130:	7475                	lui	s0,0xffffd
    4132:	6f5f 7475 6e5f      	0x6e5f74756f5f
    4138:	5b3a                	lw	s6,172(sp)
    413a:	7825                	lui	a6,0xfffe9
    413c:	0d5d                	addi	s10,s10,23
    413e:	000a                	c.slli	zero,0x2
    4140:	0a0d                	addi	s4,s4,3
    4142:	7320                	flw	fs0,96(a4)
    4144:	7465                	lui	s0,0xffff9
    4146:	6f5f 7475 6e5f      	0x6e5f74756f5f
    414c:	5b3a                	lw	s6,172(sp)
    414e:	7825                	lui	a6,0xfffe9
    4150:	0d5d                	addi	s10,s10,23
    4152:	000a                	c.slli	zero,0x2
    4154:	0a0d                	addi	s4,s4,3
    4156:	6320                	flw	fs0,64(a4)
    4158:	726c                	flw	fa1,100(a2)
    415a:	6f5f 7475 6e5f      	0x6e5f74756f5f
    4160:	5b3a                	lw	s6,172(sp)
    4162:	7825                	lui	a6,0xfffe9
    4164:	0d5d                	addi	s10,s10,23
    4166:	000a                	c.slli	zero,0x2
    4168:	74737953          	0x74737953
    416c:	6d65                	lui	s10,0x19
    416e:	3a6b6c43          	fmadd.d	fs8,fs6,ft6,ft7,unknown
    4172:	6425                	lui	s0,0x9
    4174:	0a0d                	addi	s4,s4,3
    4176:	0000                	unimp
    4178:	70696843          	fmadd.s	fa6,fs2,ft6,fa4,unknown
    417c:	4449                	li	s0,18
    417e:	253a                	lhu	a4,10(a0)
    4180:	3830                	lbu	a2,19(s0)
    4182:	0d78                	addi	a4,sp,668
    4184:	000a                	c.slli	zero,0x2
    4186:	0000                	unimp
    4188:	0a0d                	addi	s4,s4,3
    418a:	7320                	flw	fs0,96(a4)
    418c:	6174                	flw	fa3,68(a0)
    418e:	7472                	flw	fs0,60(sp)
    4190:	6c20                	flw	fs0,88(s0)
    4192:	0d706f6f          	jal	t5,aa68 <_data_lma+0x656c>
	...

00004198 <CRC16_Table>:
    4198:	c0c10000 0140c181 03c0c301 c2410280     ......@.......A.
    41a8:	06c0c601 c7410780 c5c10500 0440c481     ......A.......@.
    41b8:	0cc0cc01 cd410d80 cfc10f00 0e40ce81     ......A.......@.
    41c8:	cac10a00 0b40cb81 09c0c901 c8410880     ......@.......A.
    41d8:	18c0d801 d9411980 dbc11b00 1a40da81     ......A.......@.
    41e8:	dec11e00 1f40df81 1dc0dd01 dc411c80     ......@.......A.
    41f8:	d4c11400 1540d581 17c0d701 d6411680     ......@.......A.
    4208:	12c0d201 d3411380 d1c11100 1040d081     ......A.......@.
    4218:	30c0f001 f1413180 f3c13300 3240f281     ...0.1A..3....@2
    4228:	f6c13600 3740f781 35c0f501 f4413480     .6....@7...5.4A.
    4238:	fcc13c00 3d40fd81 3fc0ff01 fe413e80     .<....@=...?.>A.
    4248:	3ac0fa01 fb413b80 f9c13900 3840f881     ...:.;A..9....@8
    4258:	e8c12800 2940e981 2bc0eb01 ea412a80     .(....@)...+.*A.
    4268:	2ec0ee01 ef412f80 edc12d00 2c40ec81     ...../A..-....@,
    4278:	24c0e401 e5412580 e7c12700 2640e681     ...$.%A..'....@&
    4288:	e2c12200 2340e381 21c0e101 e0412080     ."....@#...!. A.
    4298:	60c0a001 a1416180 a3c16300 6240a281     ...`.aA..c....@b
    42a8:	a6c16600 6740a781 65c0a501 a4416480     .f....@g...e.dA.
    42b8:	acc16c00 6d40ad81 6fc0af01 ae416e80     .l....@m...o.nA.
    42c8:	6ac0aa01 ab416b80 a9c16900 6840a881     ...j.kA..i....@h
    42d8:	b8c17800 7940b981 7bc0bb01 ba417a80     .x....@y...{.zA.
    42e8:	7ec0be01 bf417f80 bdc17d00 7c40bc81     ...~..A..}....@|
    42f8:	74c0b401 b5417580 b7c17700 7640b681     ...t.uA..w....@v
    4308:	b2c17200 7340b381 71c0b101 b0417080     .r....@s...q.pA.
    4318:	90c15000 51409181 53c09301 92415280     .P....@Q...S.RA.
    4328:	56c09601 97415780 95c15500 54409481     ...V.WA..U....@T
    4338:	5cc09c01 9d415d80 9fc15f00 5e409e81     ...\.]A.._....@^
    4348:	9ac15a00 5b409b81 59c09901 98415880     .Z....@[...Y.XA.
    4358:	48c08801 89414980 8bc14b00 4a408a81     ...H.IA..K....@J
    4368:	8ec14e00 4f408f81 4dc08d01 8c414c80     .N....@O...M.LA.
    4378:	84c14400 45408581 47c08701 86414680     .D....@E...G.FA.
    4388:	42c08201 83414380 81c14100 40408081     ...B.CA..A....@@
    4398:	00001ada 000018e4 00001bd0 000019a0     ................
    43a8:	00001bd0 00001896 0000173a 00001bd0     ........:.......
    43b8:	000018a8 000018cc 00001abe 00001bd8     ................

000043c8 <MyDevDescr>:
    43c8:	01100112 40000002 fe0c1a86 02010001     .......@........
    43d8:	00000100                                ....

000043dc <MyCfgDescr>:
    43dc:	00430209 80000102 00040932 02020100     ..C.....2.......
    43ec:	24050001 05011000 01000124 02022404     ...$....$....$..
    43fc:	00062405 81050701 01004003 00010409     .$.......@......
    440c:	00000a02 02050700 00004002 02830507     .........@......
    441c:	00000040                                @...

00004420 <MyManuInfo>:
    4420:	0077030e 00680063 0063002e 0000006e     ..w.c.h...c.n...

00004430 <MyProdInfo>:
    4430:	00550316 00420053 00530020 00720065     ..U.S.B. .S.e.r.
    4440:	00610069 0000006c                       i.a.l...

00004448 <MySerNumInfo>:
    4448:	00300316 00320031 00340033 00360035     ..0.1.2.3.4.5.6.
    4458:	00380037 00000039                       7.8.9...

00004460 <__sf_fake_stderr>:
	...

00004480 <__sf_fake_stdin>:
	...

000044a0 <__sf_fake_stdout>:
	...
    44c0:	2b302d23 00000020 004c6c68 45676665     #-0+ ...hlL.efgE
    44d0:	00004746 33323130 37363534 42413938     FG..0123456789AB
    44e0:	46454443 00000000 33323130 37363534     CDEF....01234567
    44f0:	62613938 66656463 00000000              89abcdef....
